
VariablePSU_Firmware.elf:     file format elf32-avr

Sections:
Idx Name          Size      VMA       LMA       File off  Algn
  0 .data         00000010  00800100  00002016  000020aa  2**0
                  CONTENTS, ALLOC, LOAD, DATA
  1 .text         00002016  00000000  00000000  00000094  2**1
                  CONTENTS, ALLOC, LOAD, READONLY, CODE
  2 .bss          00000095  00800110  00800110  000020ba  2**0
                  ALLOC
  3 .stab         00002928  00000000  00000000  000020bc  2**2
                  CONTENTS, READONLY, DEBUGGING
  4 .stabstr      0000089b  00000000  00000000  000049e4  2**0
                  CONTENTS, READONLY, DEBUGGING
  5 .debug_aranges 00000188  00000000  00000000  00005280  2**3
                  CONTENTS, READONLY, DEBUGGING
  6 .debug_info   000029c8  00000000  00000000  00005408  2**0
                  CONTENTS, READONLY, DEBUGGING
  7 .debug_abbrev 00000b65  00000000  00000000  00007dd0  2**0
                  CONTENTS, READONLY, DEBUGGING
  8 .debug_line   00001777  00000000  00000000  00008935  2**0
                  CONTENTS, READONLY, DEBUGGING
  9 .debug_frame  000004e8  00000000  00000000  0000a0ac  2**2
                  CONTENTS, READONLY, DEBUGGING
 10 .debug_str    0000064a  00000000  00000000  0000a594  2**0
                  CONTENTS, READONLY, DEBUGGING
 11 .debug_loc    0000204e  00000000  00000000  0000abde  2**0
                  CONTENTS, READONLY, DEBUGGING
 12 .debug_ranges 00000a98  00000000  00000000  0000cc2c  2**0
                  CONTENTS, READONLY, DEBUGGING

Disassembly of section .text:

00000000 <__vectors>:
       0:	0c 94 3e 00 	jmp	0x7c	; 0x7c <__ctors_end>
       4:	0c 94 5b 00 	jmp	0xb6	; 0xb6 <__bad_interrupt>
       8:	0c 94 5b 00 	jmp	0xb6	; 0xb6 <__bad_interrupt>
       c:	0c 94 5b 00 	jmp	0xb6	; 0xb6 <__bad_interrupt>
      10:	0c 94 5b 00 	jmp	0xb6	; 0xb6 <__bad_interrupt>
      14:	0c 94 bb 09 	jmp	0x1376	; 0x1376 <__vector_5>
      18:	0c 94 5b 00 	jmp	0xb6	; 0xb6 <__bad_interrupt>
      1c:	0c 94 5b 00 	jmp	0xb6	; 0xb6 <__bad_interrupt>
      20:	0c 94 5b 00 	jmp	0xb6	; 0xb6 <__bad_interrupt>
      24:	0c 94 5b 00 	jmp	0xb6	; 0xb6 <__bad_interrupt>
      28:	0c 94 5b 00 	jmp	0xb6	; 0xb6 <__bad_interrupt>
      2c:	0c 94 5b 00 	jmp	0xb6	; 0xb6 <__bad_interrupt>
      30:	0c 94 5b 00 	jmp	0xb6	; 0xb6 <__bad_interrupt>
      34:	0c 94 5b 00 	jmp	0xb6	; 0xb6 <__bad_interrupt>
      38:	0c 94 5b 00 	jmp	0xb6	; 0xb6 <__bad_interrupt>
      3c:	0c 94 5b 00 	jmp	0xb6	; 0xb6 <__bad_interrupt>
      40:	0c 94 5b 00 	jmp	0xb6	; 0xb6 <__bad_interrupt>
      44:	0c 94 5b 00 	jmp	0xb6	; 0xb6 <__bad_interrupt>
      48:	0c 94 d7 0a 	jmp	0x15ae	; 0x15ae <__vector_18>
      4c:	0c 94 5b 00 	jmp	0xb6	; 0xb6 <__bad_interrupt>
      50:	0c 94 c8 09 	jmp	0x1390	; 0x1390 <__vector_20>
      54:	0c 94 5b 00 	jmp	0xb6	; 0xb6 <__bad_interrupt>
      58:	0c 94 5b 00 	jmp	0xb6	; 0xb6 <__bad_interrupt>
      5c:	0c 94 5b 00 	jmp	0xb6	; 0xb6 <__bad_interrupt>
      60:	0c 94 5b 00 	jmp	0xb6	; 0xb6 <__bad_interrupt>
      64:	0c 94 5b 00 	jmp	0xb6	; 0xb6 <__bad_interrupt>
      68:	0c 94 5b 00 	jmp	0xb6	; 0xb6 <__bad_interrupt>
      6c:	0c 94 5b 00 	jmp	0xb6	; 0xb6 <__bad_interrupt>
      70:	0c 94 5b 00 	jmp	0xb6	; 0xb6 <__bad_interrupt>
      74:	0c 94 5b 00 	jmp	0xb6	; 0xb6 <__bad_interrupt>
      78:	0c 94 5b 00 	jmp	0xb6	; 0xb6 <__bad_interrupt>

0000007c <__ctors_end>:
      7c:	11 24       	eor	r1, r1
      7e:	1f be       	out	0x3f, r1	; 63
      80:	cf ef       	ldi	r28, 0xFF	; 255
      82:	d0 e1       	ldi	r29, 0x10	; 16
      84:	de bf       	out	0x3e, r29	; 62
      86:	cd bf       	out	0x3d, r28	; 61

00000088 <__do_copy_data>:
      88:	11 e0       	ldi	r17, 0x01	; 1
      8a:	a0 e0       	ldi	r26, 0x00	; 0
      8c:	b1 e0       	ldi	r27, 0x01	; 1
      8e:	e6 e1       	ldi	r30, 0x16	; 22
      90:	f0 e2       	ldi	r31, 0x20	; 32
      92:	02 c0       	rjmp	.+4      	; 0x98 <__do_copy_data+0x10>
      94:	05 90       	lpm	r0, Z+
      96:	0d 92       	st	X+, r0
      98:	a0 31       	cpi	r26, 0x10	; 16
      9a:	b1 07       	cpc	r27, r17
      9c:	d9 f7       	brne	.-10     	; 0x94 <__do_copy_data+0xc>

0000009e <__do_clear_bss>:
      9e:	11 e0       	ldi	r17, 0x01	; 1
      a0:	a0 e1       	ldi	r26, 0x10	; 16
      a2:	b1 e0       	ldi	r27, 0x01	; 1
      a4:	01 c0       	rjmp	.+2      	; 0xa8 <.do_clear_bss_start>

000000a6 <.do_clear_bss_loop>:
      a6:	1d 92       	st	X+, r1

000000a8 <.do_clear_bss_start>:
      a8:	a5 3a       	cpi	r26, 0xA5	; 165
      aa:	b1 07       	cpc	r27, r17
      ac:	e1 f7       	brne	.-8      	; 0xa6 <.do_clear_bss_loop>
      ae:	0e 94 fb 0a 	call	0x15f6	; 0x15f6 <main>
      b2:	0c 94 09 10 	jmp	0x2012	; 0x2012 <_exit>

000000b6 <__bad_interrupt>:
      b6:	0c 94 00 00 	jmp	0	; 0x0 <__vectors>

000000ba <ds1820_reset>:
//----------------------------------------
// Reset DS18S20
//----------------------------------------
uint8_t ds1820_reset(uint8_t used_pin) {
	uint8_t err=100;
	DS1820_DDR |= 1<<used_pin;						// define as ouput
      ba:	91 b1       	in	r25, 0x01	; 1
      bc:	21 e0       	ldi	r18, 0x01	; 1
      be:	30 e0       	ldi	r19, 0x00	; 0
      c0:	08 2e       	mov	r0, r24
      c2:	02 c0       	rjmp	.+4      	; 0xc8 <ds1820_reset+0xe>
      c4:	22 0f       	add	r18, r18
      c6:	33 1f       	adc	r19, r19
      c8:	0a 94       	dec	r0
      ca:	e2 f7       	brpl	.-8      	; 0xc4 <ds1820_reset+0xa>
      cc:	92 2b       	or	r25, r18
      ce:	91 b9       	out	0x01, r25	; 1
	DS1820_PORT &= ~(1<<used_pin);					//Pull low
      d0:	92 b1       	in	r25, 0x02	; 2
      d2:	52 2f       	mov	r21, r18
      d4:	50 95       	com	r21
      d6:	95 23       	and	r25, r21
      d8:	92 b9       	out	0x02, r25	; 2
	#else
		//round up by default
		__ticks_dc = (uint32_t)(ceil(fabs(__tmp)));
	#endif

	__builtin_avr_delay_cycles(__ticks_dc);
      da:	90 ea       	ldi	r25, 0xA0	; 160
      dc:	9a 95       	dec	r25
      de:	f1 f7       	brne	.-4      	; 0xdc <ds1820_reset+0x22>
	_delay_us(480);				;					// 480 us
	DS1820_DDR &= ~(1<<used_pin);						// define as input
      e0:	91 b1       	in	r25, 0x01	; 1
      e2:	95 23       	and	r25, r21
      e4:	91 b9       	out	0x01, r25	; 1
	DS1820_PORT |= 1<<used_pin;						//Pullup on
      e6:	92 b1       	in	r25, 0x02	; 2
      e8:	92 2b       	or	r25, r18
      ea:	92 b9       	out	0x02, r25	; 2
      ec:	46 e1       	ldi	r20, 0x16	; 22
      ee:	4a 95       	dec	r20
      f0:	f1 f7       	brne	.-4      	; 0xee <ds1820_reset+0x34>
	_delay_us(66);										// 66 us
	err = (DS1820_PIN & (1<<used_pin)) >> used_pin;	// no presence detect --> err=1 otherwise err=0
      f2:	90 b1       	in	r25, 0x00	; 0
      f4:	40 e5       	ldi	r20, 0x50	; 80
      f6:	4a 95       	dec	r20
      f8:	f1 f7       	brne	.-4      	; 0xf6 <ds1820_reset+0x3c>
	_delay_us(240);									// 240 us
	if((DS1820_PIN & (1<<used_pin)) == 0 ){			// short circuit --> err=2
      fa:	40 b1       	in	r20, 0x00	; 0
      fc:	50 e0       	ldi	r21, 0x00	; 0
      fe:	08 2e       	mov	r0, r24
     100:	02 c0       	rjmp	.+4      	; 0x106 <ds1820_reset+0x4c>
     102:	55 95       	asr	r21
     104:	47 95       	ror	r20
     106:	0a 94       	dec	r0
     108:	e2 f7       	brpl	.-8      	; 0x102 <ds1820_reset+0x48>
     10a:	40 fd       	sbrc	r20, 0
     10c:	02 c0       	rjmp	.+4      	; 0x112 <ds1820_reset+0x58>
		err = 2;
     10e:	82 e0       	ldi	r24, 0x02	; 2
	}

	return err;
}
     110:	08 95       	ret
	DS1820_PORT &= ~(1<<used_pin);					//Pull low
	_delay_us(480);				;					// 480 us
	DS1820_DDR &= ~(1<<used_pin);						// define as input
	DS1820_PORT |= 1<<used_pin;						//Pullup on
	_delay_us(66);										// 66 us
	err = (DS1820_PIN & (1<<used_pin)) >> used_pin;	// no presence detect --> err=1 otherwise err=0
     112:	49 2f       	mov	r20, r25
     114:	50 e0       	ldi	r21, 0x00	; 0
     116:	42 23       	and	r20, r18
     118:	53 23       	and	r21, r19
     11a:	02 c0       	rjmp	.+4      	; 0x120 <ds1820_reset+0x66>
     11c:	55 95       	asr	r21
     11e:	47 95       	ror	r20
     120:	8a 95       	dec	r24
     122:	e2 f7       	brpl	.-8      	; 0x11c <ds1820_reset+0x62>
     124:	84 2f       	mov	r24, r20
     126:	08 95       	ret

00000128 <ds1820_wr_bit>:
}
//-----------------------------------------
// Write one bit to DS18S20
//-----------------------------------------
void ds1820_wr_bit(uint8_t wrbit,uint8_t used_pin) {
	if (wrbit ==0)	{
     128:	88 23       	and	r24, r24
     12a:	19 f0       	breq	.+6      	; 0x132 <ds1820_wr_bit+0xa>
		DS1820_DDR &= ~(1<<used_pin);				// define as input
	  	DS1820_PORT |= 1<<used_pin;					//Pullup on
		_delay_us(4);
	}
	
	if (wrbit ==1)	{
     12c:	81 30       	cpi	r24, 0x01	; 1
     12e:	e1 f0       	breq	.+56     	; 0x168 <ds1820_wr_bit+0x40>
     130:	08 95       	ret
//-----------------------------------------
// Write one bit to DS18S20
//-----------------------------------------
void ds1820_wr_bit(uint8_t wrbit,uint8_t used_pin) {
	if (wrbit ==0)	{
		DS1820_DDR |= 1<<used_pin;					// define as ouput
     132:	21 b1       	in	r18, 0x01	; 1
     134:	81 e0       	ldi	r24, 0x01	; 1
     136:	90 e0       	ldi	r25, 0x00	; 0
     138:	02 c0       	rjmp	.+4      	; 0x13e <ds1820_wr_bit+0x16>
     13a:	88 0f       	add	r24, r24
     13c:	99 1f       	adc	r25, r25
     13e:	6a 95       	dec	r22
     140:	e2 f7       	brpl	.-8      	; 0x13a <ds1820_wr_bit+0x12>
     142:	38 2f       	mov	r19, r24
     144:	28 2b       	or	r18, r24
     146:	21 b9       	out	0x01, r18	; 1
  		DS1820_PORT &= ~(1<<used_pin);				//Pull low
     148:	92 b1       	in	r25, 0x02	; 2
     14a:	80 95       	com	r24
     14c:	98 23       	and	r25, r24
     14e:	92 b9       	out	0x02, r25	; 2
     150:	94 e1       	ldi	r25, 0x14	; 20
     152:	9a 95       	dec	r25
     154:	f1 f7       	brne	.-4      	; 0x152 <ds1820_wr_bit+0x2a>
		_delay_us(60);
		DS1820_DDR &= ~(1<<used_pin);				// define as input
     156:	91 b1       	in	r25, 0x01	; 1
     158:	98 23       	and	r25, r24
     15a:	91 b9       	out	0x01, r25	; 1
	  	DS1820_PORT |= 1<<used_pin;					//Pullup on
     15c:	82 b1       	in	r24, 0x02	; 2
     15e:	83 2b       	or	r24, r19
     160:	82 b9       	out	0x02, r24	; 2
     162:	00 c0       	rjmp	.+0      	; 0x164 <ds1820_wr_bit+0x3c>
     164:	00 c0       	rjmp	.+0      	; 0x166 <ds1820_wr_bit+0x3e>
     166:	08 95       	ret
		_delay_us(4);
	}
	
	if (wrbit ==1)	{
		DS1820_DDR |= 1<<used_pin;					// define as ouput
     168:	21 b1       	in	r18, 0x01	; 1
     16a:	81 e0       	ldi	r24, 0x01	; 1
     16c:	90 e0       	ldi	r25, 0x00	; 0
     16e:	02 c0       	rjmp	.+4      	; 0x174 <ds1820_wr_bit+0x4c>
     170:	88 0f       	add	r24, r24
     172:	99 1f       	adc	r25, r25
     174:	6a 95       	dec	r22
     176:	e2 f7       	brpl	.-8      	; 0x170 <ds1820_wr_bit+0x48>
     178:	38 2f       	mov	r19, r24
     17a:	28 2b       	or	r18, r24
     17c:	21 b9       	out	0x01, r18	; 1
  		DS1820_PORT &= ~(1<<used_pin);				//Pull low
     17e:	92 b1       	in	r25, 0x02	; 2
     180:	80 95       	com	r24
     182:	98 23       	and	r25, r24
     184:	92 b9       	out	0x02, r25	; 2
     186:	93 e0       	ldi	r25, 0x03	; 3
     188:	9a 95       	dec	r25
     18a:	f1 f7       	brne	.-4      	; 0x188 <ds1820_wr_bit+0x60>
     18c:	00 00       	nop
		_delay_us(10);
		DS1820_DDR &= ~(1<<used_pin);				// define as input
     18e:	91 b1       	in	r25, 0x01	; 1
     190:	98 23       	and	r25, r24
     192:	91 b9       	out	0x01, r25	; 1
	  	DS1820_PORT |= 1<<used_pin;					//Pullup on
     194:	82 b1       	in	r24, 0x02	; 2
     196:	83 2b       	or	r24, r19
     198:	82 b9       	out	0x02, r24	; 2
     19a:	82 e1       	ldi	r24, 0x12	; 18
     19c:	8a 95       	dec	r24
     19e:	f1 f7       	brne	.-4      	; 0x19c <ds1820_wr_bit+0x74>
     1a0:	08 95       	ret

000001a2 <ds1820_re_bit>:
//-----------------------------------------
// Read one bit from DS18S20
//-----------------------------------------
uint8_t ds1820_re_bit(uint8_t used_pin) {
	uint8_t rebit;
	DS1820_DDR |= 1<<used_pin;							// define as ouput
     1a2:	91 b1       	in	r25, 0x01	; 1
     1a4:	41 e0       	ldi	r20, 0x01	; 1
     1a6:	50 e0       	ldi	r21, 0x00	; 0
     1a8:	08 2e       	mov	r0, r24
     1aa:	02 c0       	rjmp	.+4      	; 0x1b0 <ds1820_re_bit+0xe>
     1ac:	44 0f       	add	r20, r20
     1ae:	55 1f       	adc	r21, r21
     1b0:	0a 94       	dec	r0
     1b2:	e2 f7       	brpl	.-8      	; 0x1ac <ds1820_re_bit+0xa>
     1b4:	94 2b       	or	r25, r20
     1b6:	91 b9       	out	0x01, r25	; 1
  	DS1820_PORT &= ~(1<<used_pin);						//Pull low
     1b8:	92 b1       	in	r25, 0x02	; 2
     1ba:	34 2f       	mov	r19, r20
     1bc:	30 95       	com	r19
     1be:	93 23       	and	r25, r19
     1c0:	92 b9       	out	0x02, r25	; 2
     1c2:	00 00       	nop
	_delay_us(1);
	DS1820_DDR &= ~(1<<used_pin);						// define as input
     1c4:	91 b1       	in	r25, 0x01	; 1
     1c6:	93 23       	and	r25, r19
     1c8:	91 b9       	out	0x01, r25	; 1
	DS1820_PORT |= 1<<used_pin;							//Pullup on
     1ca:	92 b1       	in	r25, 0x02	; 2
     1cc:	94 2b       	or	r25, r20
     1ce:	92 b9       	out	0x02, r25	; 2
     1d0:	93 e0       	ldi	r25, 0x03	; 3
     1d2:	9a 95       	dec	r25
     1d4:	f1 f7       	brne	.-4      	; 0x1d2 <ds1820_re_bit+0x30>
     1d6:	00 00       	nop
	_delay_us(10);
	rebit = (DS1820_PIN & (1<<used_pin)) >> used_pin; 	//Read bit
     1d8:	20 b1       	in	r18, 0x00	; 0
     1da:	90 e1       	ldi	r25, 0x10	; 16
     1dc:	9a 95       	dec	r25
     1de:	f1 f7       	brne	.-4      	; 0x1dc <ds1820_re_bit+0x3a>
     1e0:	00 c0       	rjmp	.+0      	; 0x1e2 <ds1820_re_bit+0x40>
     1e2:	30 e0       	ldi	r19, 0x00	; 0
     1e4:	24 23       	and	r18, r20
     1e6:	35 23       	and	r19, r21
     1e8:	02 c0       	rjmp	.+4      	; 0x1ee <ds1820_re_bit+0x4c>
     1ea:	35 95       	asr	r19
     1ec:	27 95       	ror	r18
     1ee:	8a 95       	dec	r24
     1f0:	e2 f7       	brpl	.-8      	; 0x1ea <ds1820_re_bit+0x48>
	_delay_us(50);
	return rebit;								
}
     1f2:	82 2f       	mov	r24, r18
     1f4:	08 95       	ret

000001f6 <ds1820_re_byte>:
//-----------------------------------------
// Read 1 byte from DS18S20
//-----------------------------------------
uint8_t ds1820_re_byte(uint8_t used_pin) {
     1f6:	61 e0       	ldi	r22, 0x01	; 1
     1f8:	70 e0       	ldi	r23, 0x00	; 0
     1fa:	08 2e       	mov	r0, r24
     1fc:	02 c0       	rjmp	.+4      	; 0x202 <ds1820_re_byte+0xc>
     1fe:	66 0f       	add	r22, r22
     200:	77 1f       	adc	r23, r23
     202:	0a 94       	dec	r0
     204:	e2 f7       	brpl	.-8      	; 0x1fe <ds1820_re_byte+0x8>
     206:	96 2f       	mov	r25, r22
     208:	56 2f       	mov	r21, r22
     20a:	50 95       	com	r21
//-----------------------------------------
// Read one bit from DS18S20
//-----------------------------------------
uint8_t ds1820_re_bit(uint8_t used_pin) {
	uint8_t rebit;
	DS1820_DDR |= 1<<used_pin;							// define as ouput
     20c:	21 b1       	in	r18, 0x01	; 1
     20e:	26 2b       	or	r18, r22
     210:	21 b9       	out	0x01, r18	; 1
  	DS1820_PORT &= ~(1<<used_pin);						//Pull low
     212:	22 b1       	in	r18, 0x02	; 2
     214:	25 23       	and	r18, r21
     216:	22 b9       	out	0x02, r18	; 2
     218:	00 00       	nop
	_delay_us(1);
	DS1820_DDR &= ~(1<<used_pin);						// define as input
     21a:	21 b1       	in	r18, 0x01	; 1
     21c:	25 23       	and	r18, r21
     21e:	21 b9       	out	0x01, r18	; 1
	DS1820_PORT |= 1<<used_pin;							//Pullup on
     220:	22 b1       	in	r18, 0x02	; 2
     222:	26 2b       	or	r18, r22
     224:	22 b9       	out	0x02, r18	; 2
     226:	23 e0       	ldi	r18, 0x03	; 3
     228:	2a 95       	dec	r18
     22a:	f1 f7       	brne	.-4      	; 0x228 <ds1820_re_byte+0x32>
     22c:	00 00       	nop
	_delay_us(10);
	rebit = (DS1820_PIN & (1<<used_pin)) >> used_pin; 	//Read bit
     22e:	20 b1       	in	r18, 0x00	; 0
     230:	30 e1       	ldi	r19, 0x10	; 16
     232:	3a 95       	dec	r19
     234:	f1 f7       	brne	.-4      	; 0x232 <ds1820_re_byte+0x3c>
     236:	00 c0       	rjmp	.+0      	; 0x238 <ds1820_re_byte+0x42>
     238:	30 e0       	ldi	r19, 0x00	; 0
     23a:	26 23       	and	r18, r22
     23c:	37 23       	and	r19, r23
     23e:	08 2e       	mov	r0, r24
     240:	02 c0       	rjmp	.+4      	; 0x246 <ds1820_re_byte+0x50>
     242:	35 95       	asr	r19
     244:	27 95       	ror	r18
     246:	0a 94       	dec	r0
     248:	e2 f7       	brpl	.-8      	; 0x242 <ds1820_re_byte+0x4c>
	return rebit;								
}
//-----------------------------------------
// Read 1 byte from DS18S20
//-----------------------------------------
uint8_t ds1820_re_byte(uint8_t used_pin) {
     24a:	41 e0       	ldi	r20, 0x01	; 1
     24c:	21 30       	cpi	r18, 0x01	; 1
     24e:	09 f0       	breq	.+2      	; 0x252 <ds1820_re_byte+0x5c>
     250:	40 e0       	ldi	r20, 0x00	; 0
//-----------------------------------------
// Read one bit from DS18S20
//-----------------------------------------
uint8_t ds1820_re_bit(uint8_t used_pin) {
	uint8_t rebit;
	DS1820_DDR |= 1<<used_pin;							// define as ouput
     252:	21 b1       	in	r18, 0x01	; 1
     254:	29 2b       	or	r18, r25
     256:	21 b9       	out	0x01, r18	; 1
  	DS1820_PORT &= ~(1<<used_pin);						//Pull low
     258:	22 b1       	in	r18, 0x02	; 2
     25a:	25 23       	and	r18, r21
     25c:	22 b9       	out	0x02, r18	; 2
     25e:	00 00       	nop
	_delay_us(1);
	DS1820_DDR &= ~(1<<used_pin);						// define as input
     260:	21 b1       	in	r18, 0x01	; 1
     262:	25 23       	and	r18, r21
     264:	21 b9       	out	0x01, r18	; 1
	DS1820_PORT |= 1<<used_pin;							//Pullup on
     266:	22 b1       	in	r18, 0x02	; 2
     268:	29 2b       	or	r18, r25
     26a:	22 b9       	out	0x02, r18	; 2
     26c:	23 e0       	ldi	r18, 0x03	; 3
     26e:	2a 95       	dec	r18
     270:	f1 f7       	brne	.-4      	; 0x26e <ds1820_re_byte+0x78>
     272:	00 00       	nop
	_delay_us(10);
	rebit = (DS1820_PIN & (1<<used_pin)) >> used_pin; 	//Read bit
     274:	20 b1       	in	r18, 0x00	; 0
     276:	30 e1       	ldi	r19, 0x10	; 16
     278:	3a 95       	dec	r19
     27a:	f1 f7       	brne	.-4      	; 0x278 <ds1820_re_byte+0x82>
     27c:	00 c0       	rjmp	.+0      	; 0x27e <ds1820_re_byte+0x88>
     27e:	30 e0       	ldi	r19, 0x00	; 0
     280:	26 23       	and	r18, r22
     282:	37 23       	and	r19, r23
     284:	08 2e       	mov	r0, r24
     286:	02 c0       	rjmp	.+4      	; 0x28c <ds1820_re_byte+0x96>
     288:	35 95       	asr	r19
     28a:	27 95       	ror	r18
     28c:	0a 94       	dec	r0
     28e:	e2 f7       	brpl	.-8      	; 0x288 <ds1820_re_byte+0x92>
	uint8_t i;

	for (i=0; i < 8; i++) {
		rebit=ds1820_re_bit(used_pin);
		//_delay_us(2);									//be on the save side
		if (rebit==1){
     290:	21 30       	cpi	r18, 0x01	; 1
     292:	09 f4       	brne	.+2      	; 0x296 <ds1820_re_byte+0xa0>
     294:	cb c0       	rjmp	.+406    	; 0x42c <ds1820_re_byte+0x236>
//-----------------------------------------
// Read one bit from DS18S20
//-----------------------------------------
uint8_t ds1820_re_bit(uint8_t used_pin) {
	uint8_t rebit;
	DS1820_DDR |= 1<<used_pin;							// define as ouput
     296:	21 b1       	in	r18, 0x01	; 1
     298:	29 2b       	or	r18, r25
     29a:	21 b9       	out	0x01, r18	; 1
  	DS1820_PORT &= ~(1<<used_pin);						//Pull low
     29c:	22 b1       	in	r18, 0x02	; 2
     29e:	25 23       	and	r18, r21
     2a0:	22 b9       	out	0x02, r18	; 2
     2a2:	00 00       	nop
	_delay_us(1);
	DS1820_DDR &= ~(1<<used_pin);						// define as input
     2a4:	21 b1       	in	r18, 0x01	; 1
     2a6:	25 23       	and	r18, r21
     2a8:	21 b9       	out	0x01, r18	; 1
	DS1820_PORT |= 1<<used_pin;							//Pullup on
     2aa:	22 b1       	in	r18, 0x02	; 2
     2ac:	29 2b       	or	r18, r25
     2ae:	22 b9       	out	0x02, r18	; 2
     2b0:	23 e0       	ldi	r18, 0x03	; 3
     2b2:	2a 95       	dec	r18
     2b4:	f1 f7       	brne	.-4      	; 0x2b2 <ds1820_re_byte+0xbc>
     2b6:	00 00       	nop
	_delay_us(10);
	rebit = (DS1820_PIN & (1<<used_pin)) >> used_pin; 	//Read bit
     2b8:	20 b1       	in	r18, 0x00	; 0
     2ba:	30 e1       	ldi	r19, 0x10	; 16
     2bc:	3a 95       	dec	r19
     2be:	f1 f7       	brne	.-4      	; 0x2bc <ds1820_re_byte+0xc6>
     2c0:	00 c0       	rjmp	.+0      	; 0x2c2 <ds1820_re_byte+0xcc>
     2c2:	30 e0       	ldi	r19, 0x00	; 0
     2c4:	26 23       	and	r18, r22
     2c6:	37 23       	and	r19, r23
     2c8:	08 2e       	mov	r0, r24
     2ca:	02 c0       	rjmp	.+4      	; 0x2d0 <ds1820_re_byte+0xda>
     2cc:	35 95       	asr	r19
     2ce:	27 95       	ror	r18
     2d0:	0a 94       	dec	r0
     2d2:	e2 f7       	brpl	.-8      	; 0x2cc <ds1820_re_byte+0xd6>
	uint8_t i;

	for (i=0; i < 8; i++) {
		rebit=ds1820_re_bit(used_pin);
		//_delay_us(2);									//be on the save side
		if (rebit==1){
     2d4:	21 30       	cpi	r18, 0x01	; 1
     2d6:	09 f4       	brne	.+2      	; 0x2da <ds1820_re_byte+0xe4>
     2d8:	b6 c0       	rjmp	.+364    	; 0x446 <ds1820_re_byte+0x250>
//-----------------------------------------
// Read one bit from DS18S20
//-----------------------------------------
uint8_t ds1820_re_bit(uint8_t used_pin) {
	uint8_t rebit;
	DS1820_DDR |= 1<<used_pin;							// define as ouput
     2da:	21 b1       	in	r18, 0x01	; 1
     2dc:	29 2b       	or	r18, r25
     2de:	21 b9       	out	0x01, r18	; 1
  	DS1820_PORT &= ~(1<<used_pin);						//Pull low
     2e0:	22 b1       	in	r18, 0x02	; 2
     2e2:	25 23       	and	r18, r21
     2e4:	22 b9       	out	0x02, r18	; 2
     2e6:	00 00       	nop
	_delay_us(1);
	DS1820_DDR &= ~(1<<used_pin);						// define as input
     2e8:	21 b1       	in	r18, 0x01	; 1
     2ea:	25 23       	and	r18, r21
     2ec:	21 b9       	out	0x01, r18	; 1
	DS1820_PORT |= 1<<used_pin;							//Pullup on
     2ee:	22 b1       	in	r18, 0x02	; 2
     2f0:	29 2b       	or	r18, r25
     2f2:	22 b9       	out	0x02, r18	; 2
     2f4:	23 e0       	ldi	r18, 0x03	; 3
     2f6:	2a 95       	dec	r18
     2f8:	f1 f7       	brne	.-4      	; 0x2f6 <ds1820_re_byte+0x100>
     2fa:	00 00       	nop
	_delay_us(10);
	rebit = (DS1820_PIN & (1<<used_pin)) >> used_pin; 	//Read bit
     2fc:	20 b1       	in	r18, 0x00	; 0
     2fe:	30 e1       	ldi	r19, 0x10	; 16
     300:	3a 95       	dec	r19
     302:	f1 f7       	brne	.-4      	; 0x300 <ds1820_re_byte+0x10a>
     304:	00 c0       	rjmp	.+0      	; 0x306 <ds1820_re_byte+0x110>
     306:	30 e0       	ldi	r19, 0x00	; 0
     308:	26 23       	and	r18, r22
     30a:	37 23       	and	r19, r23
     30c:	08 2e       	mov	r0, r24
     30e:	02 c0       	rjmp	.+4      	; 0x314 <ds1820_re_byte+0x11e>
     310:	35 95       	asr	r19
     312:	27 95       	ror	r18
     314:	0a 94       	dec	r0
     316:	e2 f7       	brpl	.-8      	; 0x310 <ds1820_re_byte+0x11a>
	uint8_t i;

	for (i=0; i < 8; i++) {
		rebit=ds1820_re_bit(used_pin);
		//_delay_us(2);									//be on the save side
		if (rebit==1){
     318:	21 30       	cpi	r18, 0x01	; 1
     31a:	09 f4       	brne	.+2      	; 0x31e <ds1820_re_byte+0x128>
     31c:	92 c0       	rjmp	.+292    	; 0x442 <ds1820_re_byte+0x24c>
//-----------------------------------------
// Read one bit from DS18S20
//-----------------------------------------
uint8_t ds1820_re_bit(uint8_t used_pin) {
	uint8_t rebit;
	DS1820_DDR |= 1<<used_pin;							// define as ouput
     31e:	21 b1       	in	r18, 0x01	; 1
     320:	29 2b       	or	r18, r25
     322:	21 b9       	out	0x01, r18	; 1
  	DS1820_PORT &= ~(1<<used_pin);						//Pull low
     324:	22 b1       	in	r18, 0x02	; 2
     326:	25 23       	and	r18, r21
     328:	22 b9       	out	0x02, r18	; 2
     32a:	00 00       	nop
	_delay_us(1);
	DS1820_DDR &= ~(1<<used_pin);						// define as input
     32c:	21 b1       	in	r18, 0x01	; 1
     32e:	25 23       	and	r18, r21
     330:	21 b9       	out	0x01, r18	; 1
	DS1820_PORT |= 1<<used_pin;							//Pullup on
     332:	22 b1       	in	r18, 0x02	; 2
     334:	29 2b       	or	r18, r25
     336:	22 b9       	out	0x02, r18	; 2
     338:	23 e0       	ldi	r18, 0x03	; 3
     33a:	2a 95       	dec	r18
     33c:	f1 f7       	brne	.-4      	; 0x33a <ds1820_re_byte+0x144>
     33e:	00 00       	nop
	_delay_us(10);
	rebit = (DS1820_PIN & (1<<used_pin)) >> used_pin; 	//Read bit
     340:	20 b1       	in	r18, 0x00	; 0
     342:	30 e1       	ldi	r19, 0x10	; 16
     344:	3a 95       	dec	r19
     346:	f1 f7       	brne	.-4      	; 0x344 <ds1820_re_byte+0x14e>
     348:	00 c0       	rjmp	.+0      	; 0x34a <ds1820_re_byte+0x154>
     34a:	30 e0       	ldi	r19, 0x00	; 0
     34c:	26 23       	and	r18, r22
     34e:	37 23       	and	r19, r23
     350:	08 2e       	mov	r0, r24
     352:	02 c0       	rjmp	.+4      	; 0x358 <ds1820_re_byte+0x162>
     354:	35 95       	asr	r19
     356:	27 95       	ror	r18
     358:	0a 94       	dec	r0
     35a:	e2 f7       	brpl	.-8      	; 0x354 <ds1820_re_byte+0x15e>
	uint8_t i;

	for (i=0; i < 8; i++) {
		rebit=ds1820_re_bit(used_pin);
		//_delay_us(2);									//be on the save side
		if (rebit==1){
     35c:	21 30       	cpi	r18, 0x01	; 1
     35e:	09 f4       	brne	.+2      	; 0x362 <ds1820_re_byte+0x16c>
     360:	6e c0       	rjmp	.+220    	; 0x43e <ds1820_re_byte+0x248>
//-----------------------------------------
// Read one bit from DS18S20
//-----------------------------------------
uint8_t ds1820_re_bit(uint8_t used_pin) {
	uint8_t rebit;
	DS1820_DDR |= 1<<used_pin;							// define as ouput
     362:	21 b1       	in	r18, 0x01	; 1
     364:	29 2b       	or	r18, r25
     366:	21 b9       	out	0x01, r18	; 1
  	DS1820_PORT &= ~(1<<used_pin);						//Pull low
     368:	22 b1       	in	r18, 0x02	; 2
     36a:	25 23       	and	r18, r21
     36c:	22 b9       	out	0x02, r18	; 2
     36e:	00 00       	nop
	_delay_us(1);
	DS1820_DDR &= ~(1<<used_pin);						// define as input
     370:	21 b1       	in	r18, 0x01	; 1
     372:	25 23       	and	r18, r21
     374:	21 b9       	out	0x01, r18	; 1
	DS1820_PORT |= 1<<used_pin;							//Pullup on
     376:	22 b1       	in	r18, 0x02	; 2
     378:	29 2b       	or	r18, r25
     37a:	22 b9       	out	0x02, r18	; 2
     37c:	23 e0       	ldi	r18, 0x03	; 3
     37e:	2a 95       	dec	r18
     380:	f1 f7       	brne	.-4      	; 0x37e <ds1820_re_byte+0x188>
     382:	00 00       	nop
	_delay_us(10);
	rebit = (DS1820_PIN & (1<<used_pin)) >> used_pin; 	//Read bit
     384:	20 b1       	in	r18, 0x00	; 0
     386:	30 e1       	ldi	r19, 0x10	; 16
     388:	3a 95       	dec	r19
     38a:	f1 f7       	brne	.-4      	; 0x388 <ds1820_re_byte+0x192>
     38c:	00 c0       	rjmp	.+0      	; 0x38e <ds1820_re_byte+0x198>
     38e:	30 e0       	ldi	r19, 0x00	; 0
     390:	26 23       	and	r18, r22
     392:	37 23       	and	r19, r23
     394:	08 2e       	mov	r0, r24
     396:	02 c0       	rjmp	.+4      	; 0x39c <ds1820_re_byte+0x1a6>
     398:	35 95       	asr	r19
     39a:	27 95       	ror	r18
     39c:	0a 94       	dec	r0
     39e:	e2 f7       	brpl	.-8      	; 0x398 <ds1820_re_byte+0x1a2>
	uint8_t i;

	for (i=0; i < 8; i++) {
		rebit=ds1820_re_bit(used_pin);
		//_delay_us(2);									//be on the save side
		if (rebit==1){
     3a0:	21 30       	cpi	r18, 0x01	; 1
     3a2:	09 f4       	brne	.+2      	; 0x3a6 <ds1820_re_byte+0x1b0>
     3a4:	4a c0       	rjmp	.+148    	; 0x43a <ds1820_re_byte+0x244>
//-----------------------------------------
// Read one bit from DS18S20
//-----------------------------------------
uint8_t ds1820_re_bit(uint8_t used_pin) {
	uint8_t rebit;
	DS1820_DDR |= 1<<used_pin;							// define as ouput
     3a6:	21 b1       	in	r18, 0x01	; 1
     3a8:	29 2b       	or	r18, r25
     3aa:	21 b9       	out	0x01, r18	; 1
  	DS1820_PORT &= ~(1<<used_pin);						//Pull low
     3ac:	22 b1       	in	r18, 0x02	; 2
     3ae:	25 23       	and	r18, r21
     3b0:	22 b9       	out	0x02, r18	; 2
     3b2:	00 00       	nop
	_delay_us(1);
	DS1820_DDR &= ~(1<<used_pin);						// define as input
     3b4:	21 b1       	in	r18, 0x01	; 1
     3b6:	25 23       	and	r18, r21
     3b8:	21 b9       	out	0x01, r18	; 1
	DS1820_PORT |= 1<<used_pin;							//Pullup on
     3ba:	22 b1       	in	r18, 0x02	; 2
     3bc:	29 2b       	or	r18, r25
     3be:	22 b9       	out	0x02, r18	; 2
     3c0:	23 e0       	ldi	r18, 0x03	; 3
     3c2:	2a 95       	dec	r18
     3c4:	f1 f7       	brne	.-4      	; 0x3c2 <ds1820_re_byte+0x1cc>
     3c6:	00 00       	nop
	_delay_us(10);
	rebit = (DS1820_PIN & (1<<used_pin)) >> used_pin; 	//Read bit
     3c8:	20 b1       	in	r18, 0x00	; 0
     3ca:	30 e1       	ldi	r19, 0x10	; 16
     3cc:	3a 95       	dec	r19
     3ce:	f1 f7       	brne	.-4      	; 0x3cc <ds1820_re_byte+0x1d6>
     3d0:	00 c0       	rjmp	.+0      	; 0x3d2 <ds1820_re_byte+0x1dc>
     3d2:	30 e0       	ldi	r19, 0x00	; 0
     3d4:	26 23       	and	r18, r22
     3d6:	37 23       	and	r19, r23
     3d8:	08 2e       	mov	r0, r24
     3da:	02 c0       	rjmp	.+4      	; 0x3e0 <ds1820_re_byte+0x1ea>
     3dc:	35 95       	asr	r19
     3de:	27 95       	ror	r18
     3e0:	0a 94       	dec	r0
     3e2:	e2 f7       	brpl	.-8      	; 0x3dc <ds1820_re_byte+0x1e6>
	uint8_t i;

	for (i=0; i < 8; i++) {
		rebit=ds1820_re_bit(used_pin);
		//_delay_us(2);									//be on the save side
		if (rebit==1){
     3e4:	21 30       	cpi	r18, 0x01	; 1
     3e6:	39 f1       	breq	.+78     	; 0x436 <ds1820_re_byte+0x240>
//-----------------------------------------
// Read one bit from DS18S20
//-----------------------------------------
uint8_t ds1820_re_bit(uint8_t used_pin) {
	uint8_t rebit;
	DS1820_DDR |= 1<<used_pin;							// define as ouput
     3e8:	21 b1       	in	r18, 0x01	; 1
     3ea:	29 2b       	or	r18, r25
     3ec:	21 b9       	out	0x01, r18	; 1
  	DS1820_PORT &= ~(1<<used_pin);						//Pull low
     3ee:	22 b1       	in	r18, 0x02	; 2
     3f0:	25 23       	and	r18, r21
     3f2:	22 b9       	out	0x02, r18	; 2
     3f4:	00 00       	nop
	_delay_us(1);
	DS1820_DDR &= ~(1<<used_pin);						// define as input
     3f6:	21 b1       	in	r18, 0x01	; 1
     3f8:	25 23       	and	r18, r21
     3fa:	21 b9       	out	0x01, r18	; 1
	DS1820_PORT |= 1<<used_pin;							//Pullup on
     3fc:	22 b1       	in	r18, 0x02	; 2
     3fe:	29 2b       	or	r18, r25
     400:	22 b9       	out	0x02, r18	; 2
     402:	93 e0       	ldi	r25, 0x03	; 3
     404:	9a 95       	dec	r25
     406:	f1 f7       	brne	.-4      	; 0x404 <ds1820_re_byte+0x20e>
     408:	00 00       	nop
	_delay_us(10);
	rebit = (DS1820_PIN & (1<<used_pin)) >> used_pin; 	//Read bit
     40a:	20 b1       	in	r18, 0x00	; 0
     40c:	30 e1       	ldi	r19, 0x10	; 16
     40e:	3a 95       	dec	r19
     410:	f1 f7       	brne	.-4      	; 0x40e <ds1820_re_byte+0x218>
     412:	00 c0       	rjmp	.+0      	; 0x414 <ds1820_re_byte+0x21e>
     414:	30 e0       	ldi	r19, 0x00	; 0
     416:	26 23       	and	r18, r22
     418:	37 23       	and	r19, r23
     41a:	02 c0       	rjmp	.+4      	; 0x420 <ds1820_re_byte+0x22a>
     41c:	35 95       	asr	r19
     41e:	27 95       	ror	r18
     420:	8a 95       	dec	r24
     422:	e2 f7       	brpl	.-8      	; 0x41c <ds1820_re_byte+0x226>
	uint8_t i;

	for (i=0; i < 8; i++) {
		rebit=ds1820_re_bit(used_pin);
		//_delay_us(2);									//be on the save side
		if (rebit==1){
     424:	21 30       	cpi	r18, 0x01	; 1
     426:	21 f0       	breq	.+8      	; 0x430 <ds1820_re_byte+0x23a>
			rebyte|=(1<<i);
		}
	}
	return(rebyte);
}
     428:	84 2f       	mov	r24, r20
     42a:	08 95       	ret

	for (i=0; i < 8; i++) {
		rebit=ds1820_re_bit(used_pin);
		//_delay_us(2);									//be on the save side
		if (rebit==1){
			rebyte|=(1<<i);
     42c:	42 60       	ori	r20, 0x02	; 2
     42e:	33 cf       	rjmp	.-410    	; 0x296 <ds1820_re_byte+0xa0>
     430:	40 68       	ori	r20, 0x80	; 128
		}
	}
	return(rebyte);
}
     432:	84 2f       	mov	r24, r20
     434:	08 95       	ret

	for (i=0; i < 8; i++) {
		rebit=ds1820_re_bit(used_pin);
		//_delay_us(2);									//be on the save side
		if (rebit==1){
			rebyte|=(1<<i);
     436:	40 64       	ori	r20, 0x40	; 64
     438:	d7 cf       	rjmp	.-82     	; 0x3e8 <ds1820_re_byte+0x1f2>
     43a:	40 62       	ori	r20, 0x20	; 32
     43c:	b4 cf       	rjmp	.-152    	; 0x3a6 <ds1820_re_byte+0x1b0>
     43e:	40 61       	ori	r20, 0x10	; 16
     440:	90 cf       	rjmp	.-224    	; 0x362 <ds1820_re_byte+0x16c>
     442:	48 60       	ori	r20, 0x08	; 8
     444:	6c cf       	rjmp	.-296    	; 0x31e <ds1820_re_byte+0x128>
     446:	44 60       	ori	r20, 0x04	; 4
     448:	48 cf       	rjmp	.-368    	; 0x2da <ds1820_re_byte+0xe4>

0000044a <ds1820_wr_byte>:
	return(rebyte);
}
//-----------------------------------------
// Write 1 byte to DS18S20
//-----------------------------------------
void ds1820_wr_byte(uint8_t wrbyte,uint8_t used_pin) {
     44a:	cf 93       	push	r28
     44c:	df 93       	push	r29
     44e:	d8 2f       	mov	r29, r24
     450:	c6 2f       	mov	r28, r22
	uint8_t i;
	for (i=0; i < 8; i++) { // writes byte, one bit at a time
		ds1820_wr_bit((wrbyte & 0b00000001),used_pin);
     452:	81 70       	andi	r24, 0x01	; 1
     454:	0e 94 94 00 	call	0x128	; 0x128 <ds1820_wr_bit>
		wrbyte = wrbyte >> 1;
     458:	d6 95       	lsr	r29
// Write 1 byte to DS18S20
//-----------------------------------------
void ds1820_wr_byte(uint8_t wrbyte,uint8_t used_pin) {
	uint8_t i;
	for (i=0; i < 8; i++) { // writes byte, one bit at a time
		ds1820_wr_bit((wrbyte & 0b00000001),used_pin);
     45a:	8d 2f       	mov	r24, r29
     45c:	81 70       	andi	r24, 0x01	; 1
     45e:	6c 2f       	mov	r22, r28
     460:	0e 94 94 00 	call	0x128	; 0x128 <ds1820_wr_bit>
		wrbyte = wrbyte >> 1;
     464:	d6 95       	lsr	r29
// Write 1 byte to DS18S20
//-----------------------------------------
void ds1820_wr_byte(uint8_t wrbyte,uint8_t used_pin) {
	uint8_t i;
	for (i=0; i < 8; i++) { // writes byte, one bit at a time
		ds1820_wr_bit((wrbyte & 0b00000001),used_pin);
     466:	8d 2f       	mov	r24, r29
     468:	81 70       	andi	r24, 0x01	; 1
     46a:	6c 2f       	mov	r22, r28
     46c:	0e 94 94 00 	call	0x128	; 0x128 <ds1820_wr_bit>
		wrbyte = wrbyte >> 1;
     470:	d6 95       	lsr	r29
// Write 1 byte to DS18S20
//-----------------------------------------
void ds1820_wr_byte(uint8_t wrbyte,uint8_t used_pin) {
	uint8_t i;
	for (i=0; i < 8; i++) { // writes byte, one bit at a time
		ds1820_wr_bit((wrbyte & 0b00000001),used_pin);
     472:	8d 2f       	mov	r24, r29
     474:	81 70       	andi	r24, 0x01	; 1
     476:	6c 2f       	mov	r22, r28
     478:	0e 94 94 00 	call	0x128	; 0x128 <ds1820_wr_bit>
		wrbyte = wrbyte >> 1;
     47c:	d6 95       	lsr	r29
// Write 1 byte to DS18S20
//-----------------------------------------
void ds1820_wr_byte(uint8_t wrbyte,uint8_t used_pin) {
	uint8_t i;
	for (i=0; i < 8; i++) { // writes byte, one bit at a time
		ds1820_wr_bit((wrbyte & 0b00000001),used_pin);
     47e:	8d 2f       	mov	r24, r29
     480:	81 70       	andi	r24, 0x01	; 1
     482:	6c 2f       	mov	r22, r28
     484:	0e 94 94 00 	call	0x128	; 0x128 <ds1820_wr_bit>
		wrbyte = wrbyte >> 1;
     488:	d6 95       	lsr	r29
// Write 1 byte to DS18S20
//-----------------------------------------
void ds1820_wr_byte(uint8_t wrbyte,uint8_t used_pin) {
	uint8_t i;
	for (i=0; i < 8; i++) { // writes byte, one bit at a time
		ds1820_wr_bit((wrbyte & 0b00000001),used_pin);
     48a:	8d 2f       	mov	r24, r29
     48c:	81 70       	andi	r24, 0x01	; 1
     48e:	6c 2f       	mov	r22, r28
     490:	0e 94 94 00 	call	0x128	; 0x128 <ds1820_wr_bit>
		wrbyte = wrbyte >> 1;
     494:	d6 95       	lsr	r29
// Write 1 byte to DS18S20
//-----------------------------------------
void ds1820_wr_byte(uint8_t wrbyte,uint8_t used_pin) {
	uint8_t i;
	for (i=0; i < 8; i++) { // writes byte, one bit at a time
		ds1820_wr_bit((wrbyte & 0b00000001),used_pin);
     496:	8d 2f       	mov	r24, r29
     498:	81 70       	andi	r24, 0x01	; 1
     49a:	6c 2f       	mov	r22, r28
     49c:	0e 94 94 00 	call	0x128	; 0x128 <ds1820_wr_bit>
     4a0:	8d 2f       	mov	r24, r29
     4a2:	86 95       	lsr	r24
     4a4:	6c 2f       	mov	r22, r28
     4a6:	0e 94 94 00 	call	0x128	; 0x128 <ds1820_wr_bit>
     4aa:	00 c0       	rjmp	.+0      	; 0x4ac <ds1820_wr_byte+0x62>
     4ac:	00 c0       	rjmp	.+0      	; 0x4ae <ds1820_wr_byte+0x64>
     4ae:	00 00       	nop
		wrbyte = wrbyte >> 1;
	}
	_delay_us(5);
}
     4b0:	df 91       	pop	r29
     4b2:	cf 91       	pop	r28
     4b4:	08 95       	ret

000004b6 <ds1820_read_temp>:
//-----------------------------------------
// Read temperature
//-----------------------------------------
float  ds1820_read_temp(uint8_t used_pin)	 {
     4b6:	8f 92       	push	r8
     4b8:	9f 92       	push	r9
     4ba:	af 92       	push	r10
     4bc:	bf 92       	push	r11
     4be:	cf 92       	push	r12
     4c0:	df 92       	push	r13
     4c2:	ef 92       	push	r14
     4c4:	ff 92       	push	r15
     4c6:	0f 93       	push	r16
     4c8:	1f 93       	push	r17
     4ca:	cf 93       	push	r28
     4cc:	df 93       	push	r29
     4ce:	cd b7       	in	r28, 0x3d	; 61
     4d0:	de b7       	in	r29, 0x3e	; 62
     4d2:	29 97       	sbiw	r28, 0x09	; 9
     4d4:	0f b6       	in	r0, 0x3f	; 63
     4d6:	f8 94       	cli
     4d8:	de bf       	out	0x3e, r29	; 62
     4da:	0f be       	out	0x3f, r0	; 63
     4dc:	cd bf       	out	0x3d, r28	; 61
     4de:	f8 2e       	mov	r15, r24
	uint8_t error,i;
	uint16_t j=0;
    uint8_t scratchpad[9];
	float temp=0;
	scratchpad[0]=0;
     4e0:	19 82       	std	Y+1, r1	; 0x01
	scratchpad[1]=0;
     4e2:	1a 82       	std	Y+2, r1	; 0x02
	scratchpad[2]=0;
	scratchpad[3]=0;
	scratchpad[4]=0;
	scratchpad[5]=0;
	scratchpad[6]=0;
     4e4:	1f 82       	std	Y+7, r1	; 0x07
	scratchpad[7]=0;
     4e6:	18 86       	std	Y+8, r1	; 0x08
//----------------------------------------
// Reset DS18S20
//----------------------------------------
uint8_t ds1820_reset(uint8_t used_pin) {
	uint8_t err=100;
	DS1820_DDR |= 1<<used_pin;						// define as ouput
     4e8:	81 b1       	in	r24, 0x01	; 1
     4ea:	91 e0       	ldi	r25, 0x01	; 1
     4ec:	c9 2e       	mov	r12, r25
     4ee:	d1 2c       	mov	r13, r1
     4f0:	0f 2c       	mov	r0, r15
     4f2:	02 c0       	rjmp	.+4      	; 0x4f8 <ds1820_read_temp+0x42>
     4f4:	cc 0c       	add	r12, r12
     4f6:	dd 1c       	adc	r13, r13
     4f8:	0a 94       	dec	r0
     4fa:	e2 f7       	brpl	.-8      	; 0x4f4 <ds1820_read_temp+0x3e>
     4fc:	0c 2d       	mov	r16, r12
     4fe:	8c 29       	or	r24, r12
     500:	81 b9       	out	0x01, r24	; 1
	DS1820_PORT &= ~(1<<used_pin);					//Pull low
     502:	82 b1       	in	r24, 0x02	; 2
     504:	1c 2d       	mov	r17, r12
     506:	10 95       	com	r17
     508:	81 23       	and	r24, r17
     50a:	82 b9       	out	0x02, r24	; 2
     50c:	80 ea       	ldi	r24, 0xA0	; 160
     50e:	8a 95       	dec	r24
     510:	f1 f7       	brne	.-4      	; 0x50e <ds1820_read_temp+0x58>
	_delay_us(480);				;					// 480 us
	DS1820_DDR &= ~(1<<used_pin);						// define as input
     512:	81 b1       	in	r24, 0x01	; 1
     514:	81 23       	and	r24, r17
     516:	81 b9       	out	0x01, r24	; 1
	DS1820_PORT |= 1<<used_pin;						//Pullup on
     518:	82 b1       	in	r24, 0x02	; 2
     51a:	8c 29       	or	r24, r12
     51c:	82 b9       	out	0x02, r24	; 2
     51e:	96 e1       	ldi	r25, 0x16	; 22
     520:	9a 95       	dec	r25
     522:	f1 f7       	brne	.-4      	; 0x520 <ds1820_read_temp+0x6a>
	_delay_us(66);										// 66 us
	err = (DS1820_PIN & (1<<used_pin)) >> used_pin;	// no presence detect --> err=1 otherwise err=0
     524:	20 b1       	in	r18, 0x00	; 0
     526:	80 e5       	ldi	r24, 0x50	; 80
     528:	8a 95       	dec	r24
     52a:	f1 f7       	brne	.-4      	; 0x528 <ds1820_read_temp+0x72>
	_delay_us(240);									// 240 us
	if((DS1820_PIN & (1<<used_pin)) == 0 ){			// short circuit --> err=2
     52c:	80 b1       	in	r24, 0x00	; 0
     52e:	90 e0       	ldi	r25, 0x00	; 0
     530:	0f 2c       	mov	r0, r15
     532:	02 c0       	rjmp	.+4      	; 0x538 <ds1820_read_temp+0x82>
     534:	95 95       	asr	r25
     536:	87 95       	ror	r24
     538:	0a 94       	dec	r0
     53a:	e2 f7       	brpl	.-8      	; 0x534 <ds1820_read_temp+0x7e>
     53c:	80 fd       	sbrc	r24, 0
     53e:	86 c0       	rjmp	.+268    	; 0x64c <ds1820_read_temp+0x196>
    
	    for (i=0; i<9; i++) {   									//8. Get scratchpad byte by byte
			scratchpad[i]=ds1820_re_byte(used_pin); 					//9. read one DS18S20 byte
	    }
	}
	if(scratchpad[1]==0x00 && scratchpad[7]!=0){					//Value pos.
     540:	8a 81       	ldd	r24, Y+2	; 0x02
     542:	88 23       	and	r24, r24
     544:	c9 f1       	breq	.+114    	; 0x5b8 <ds1820_read_temp+0x102>
     546:	19 81       	ldd	r17, Y+1	; 0x01

	}
	if(scratchpad[1]!=0x00){										//Value negative
		uint8_t tmp;
		tmp =scratchpad[0];											//Save Kommabit
		tmp= ~ tmp;
     548:	61 2f       	mov	r22, r17
     54a:	60 95       	com	r22
		tmp= tmp >> 1;
     54c:	66 95       	lsr	r22
		temp = (-1)*(tmp+1);
     54e:	70 e0       	ldi	r23, 0x00	; 0
     550:	60 95       	com	r22
     552:	70 95       	com	r23
     554:	88 27       	eor	r24, r24
     556:	77 fd       	sbrc	r23, 7
     558:	80 95       	com	r24
     55a:	98 2f       	mov	r25, r24
     55c:	0e 94 fd 0b 	call	0x17fa	; 0x17fa <__floatsisf>
		if ((scratchpad[0]&0b00000001)==1){
     560:	10 ff       	sbrs	r17, 0
     562:	0f c0       	rjmp	.+30     	; 0x582 <ds1820_read_temp+0xcc>
			temp=temp+0.5;
     564:	47 2f       	mov	r20, r23
     566:	38 2f       	mov	r19, r24
     568:	29 2f       	mov	r18, r25
     56a:	86 2f       	mov	r24, r22
     56c:	94 2f       	mov	r25, r20
     56e:	a3 2f       	mov	r26, r19
     570:	b2 2f       	mov	r27, r18
     572:	bc 01       	movw	r22, r24
     574:	cd 01       	movw	r24, r26
     576:	20 e0       	ldi	r18, 0x00	; 0
     578:	30 e0       	ldi	r19, 0x00	; 0
     57a:	40 e0       	ldi	r20, 0x00	; 0
     57c:	5f e3       	ldi	r21, 0x3F	; 63
     57e:	0e 94 2f 0b 	call	0x165e	; 0x165e <__addsf3>
		}

	}

	return temp;
}
     582:	38 2f       	mov	r19, r24
     584:	29 2f       	mov	r18, r25
     586:	86 2f       	mov	r24, r22
     588:	97 2f       	mov	r25, r23
     58a:	a3 2f       	mov	r26, r19
     58c:	b2 2f       	mov	r27, r18
     58e:	bc 01       	movw	r22, r24
     590:	cd 01       	movw	r24, r26
     592:	29 96       	adiw	r28, 0x09	; 9
     594:	0f b6       	in	r0, 0x3f	; 63
     596:	f8 94       	cli
     598:	de bf       	out	0x3e, r29	; 62
     59a:	0f be       	out	0x3f, r0	; 63
     59c:	cd bf       	out	0x3d, r28	; 61
     59e:	df 91       	pop	r29
     5a0:	cf 91       	pop	r28
     5a2:	1f 91       	pop	r17
     5a4:	0f 91       	pop	r16
     5a6:	ff 90       	pop	r15
     5a8:	ef 90       	pop	r14
     5aa:	df 90       	pop	r13
     5ac:	cf 90       	pop	r12
     5ae:	bf 90       	pop	r11
     5b0:	af 90       	pop	r10
     5b2:	9f 90       	pop	r9
     5b4:	8f 90       	pop	r8
     5b6:	08 95       	ret
    
	    for (i=0; i<9; i++) {   									//8. Get scratchpad byte by byte
			scratchpad[i]=ds1820_re_byte(used_pin); 					//9. read one DS18S20 byte
	    }
	}
	if(scratchpad[1]==0x00 && scratchpad[7]!=0){					//Value pos.
     5b8:	68 85       	ldd	r22, Y+8	; 0x08
     5ba:	66 23       	and	r22, r22
     5bc:	09 f4       	brne	.+2      	; 0x5c0 <ds1820_read_temp+0x10a>
     5be:	41 c0       	rjmp	.+130    	; 0x642 <ds1820_read_temp+0x18c>
		scratchpad[0]=scratchpad[0] >> 1;
		temp=(scratchpad[0]-0.25f+(((float)scratchpad[7]-(float)scratchpad[6])/(float)scratchpad[7]));
     5c0:	70 e0       	ldi	r23, 0x00	; 0
     5c2:	80 e0       	ldi	r24, 0x00	; 0
     5c4:	90 e0       	ldi	r25, 0x00	; 0
     5c6:	0e 94 fb 0b 	call	0x17f6	; 0x17f6 <__floatunsisf>
     5ca:	6b 01       	movw	r12, r22
     5cc:	7c 01       	movw	r14, r24
	    for (i=0; i<9; i++) {   									//8. Get scratchpad byte by byte
			scratchpad[i]=ds1820_re_byte(used_pin); 					//9. read one DS18S20 byte
	    }
	}
	if(scratchpad[1]==0x00 && scratchpad[7]!=0){					//Value pos.
		scratchpad[0]=scratchpad[0] >> 1;
     5ce:	69 81       	ldd	r22, Y+1	; 0x01
     5d0:	66 95       	lsr	r22
		temp=(scratchpad[0]-0.25f+(((float)scratchpad[7]-(float)scratchpad[6])/(float)scratchpad[7]));
     5d2:	70 e0       	ldi	r23, 0x00	; 0
     5d4:	80 e0       	ldi	r24, 0x00	; 0
     5d6:	90 e0       	ldi	r25, 0x00	; 0
     5d8:	0e 94 fd 0b 	call	0x17fa	; 0x17fa <__floatsisf>
     5dc:	20 e0       	ldi	r18, 0x00	; 0
     5de:	30 e0       	ldi	r19, 0x00	; 0
     5e0:	40 e8       	ldi	r20, 0x80	; 128
     5e2:	5e e3       	ldi	r21, 0x3E	; 62
     5e4:	0e 94 2e 0b 	call	0x165c	; 0x165c <__subsf3>
     5e8:	4b 01       	movw	r8, r22
     5ea:	5c 01       	movw	r10, r24
     5ec:	6f 81       	ldd	r22, Y+7	; 0x07
     5ee:	70 e0       	ldi	r23, 0x00	; 0
     5f0:	80 e0       	ldi	r24, 0x00	; 0
     5f2:	90 e0       	ldi	r25, 0x00	; 0
     5f4:	0e 94 fb 0b 	call	0x17f6	; 0x17f6 <__floatunsisf>
     5f8:	9b 01       	movw	r18, r22
     5fa:	ac 01       	movw	r20, r24
     5fc:	c7 01       	movw	r24, r14
     5fe:	b6 01       	movw	r22, r12
     600:	0e 94 2e 0b 	call	0x165c	; 0x165c <__subsf3>
     604:	a7 01       	movw	r20, r14
     606:	96 01       	movw	r18, r12
     608:	0e 94 93 0b 	call	0x1726	; 0x1726 <__divsf3>
     60c:	9b 01       	movw	r18, r22
     60e:	ac 01       	movw	r20, r24
     610:	c5 01       	movw	r24, r10
     612:	b4 01       	movw	r22, r8
     614:	0e 94 2f 0b 	call	0x165e	; 0x165e <__addsf3>
		temp = (floor(temp*10.0+0.5)/10);							//Round value .x
     618:	20 e0       	ldi	r18, 0x00	; 0
     61a:	30 e0       	ldi	r19, 0x00	; 0
     61c:	40 e2       	ldi	r20, 0x20	; 32
     61e:	51 e4       	ldi	r21, 0x41	; 65
     620:	0e 94 dc 0c 	call	0x19b8	; 0x19b8 <__mulsf3>
     624:	20 e0       	ldi	r18, 0x00	; 0
     626:	30 e0       	ldi	r19, 0x00	; 0
     628:	40 e0       	ldi	r20, 0x00	; 0
     62a:	5f e3       	ldi	r21, 0x3F	; 63
     62c:	0e 94 2f 0b 	call	0x165e	; 0x165e <__addsf3>
     630:	0e 94 38 0c 	call	0x1870	; 0x1870 <floor>
     634:	20 e0       	ldi	r18, 0x00	; 0
     636:	30 e0       	ldi	r19, 0x00	; 0
     638:	40 e2       	ldi	r20, 0x20	; 32
     63a:	51 e4       	ldi	r21, 0x41	; 65
     63c:	0e 94 93 0b 	call	0x1726	; 0x1726 <__divsf3>
     640:	a0 cf       	rjmp	.-192    	; 0x582 <ds1820_read_temp+0xcc>
//-----------------------------------------
float  ds1820_read_temp(uint8_t used_pin)	 {
	uint8_t error,i;
	uint16_t j=0;
    uint8_t scratchpad[9];
	float temp=0;
     642:	60 e0       	ldi	r22, 0x00	; 0
     644:	70 e0       	ldi	r23, 0x00	; 0
     646:	80 e0       	ldi	r24, 0x00	; 0
     648:	90 e0       	ldi	r25, 0x00	; 0
     64a:	9b cf       	rjmp	.-202    	; 0x582 <ds1820_read_temp+0xcc>
	DS1820_PORT &= ~(1<<used_pin);					//Pull low
	_delay_us(480);				;					// 480 us
	DS1820_DDR &= ~(1<<used_pin);						// define as input
	DS1820_PORT |= 1<<used_pin;						//Pullup on
	_delay_us(66);										// 66 us
	err = (DS1820_PIN & (1<<used_pin)) >> used_pin;	// no presence detect --> err=1 otherwise err=0
     64c:	82 2f       	mov	r24, r18
     64e:	90 e0       	ldi	r25, 0x00	; 0
     650:	8c 21       	and	r24, r12
     652:	9d 21       	and	r25, r13
     654:	0f 2c       	mov	r0, r15
     656:	02 c0       	rjmp	.+4      	; 0x65c <ds1820_read_temp+0x1a6>
     658:	95 95       	asr	r25
     65a:	87 95       	ror	r24
     65c:	0a 94       	dec	r0
     65e:	e2 f7       	brpl	.-8      	; 0x658 <ds1820_read_temp+0x1a2>
	scratchpad[5]=0;
	scratchpad[6]=0;
	scratchpad[7]=0;
	scratchpad[8]=0;
	error=ds1820_reset(used_pin);									//1. Reset
	if (error==0){
     660:	88 23       	and	r24, r24
     662:	09 f0       	breq	.+2      	; 0x666 <ds1820_read_temp+0x1b0>
     664:	6d cf       	rjmp	.-294    	; 0x540 <ds1820_read_temp+0x8a>
// Write 1 byte to DS18S20
//-----------------------------------------
void ds1820_wr_byte(uint8_t wrbyte,uint8_t used_pin) {
	uint8_t i;
	for (i=0; i < 8; i++) { // writes byte, one bit at a time
		ds1820_wr_bit((wrbyte & 0b00000001),used_pin);
     666:	6f 2d       	mov	r22, r15
     668:	0e 94 94 00 	call	0x128	; 0x128 <ds1820_wr_bit>
     66c:	80 e0       	ldi	r24, 0x00	; 0
     66e:	6f 2d       	mov	r22, r15
     670:	0e 94 94 00 	call	0x128	; 0x128 <ds1820_wr_bit>
     674:	81 e0       	ldi	r24, 0x01	; 1
     676:	6f 2d       	mov	r22, r15
     678:	0e 94 94 00 	call	0x128	; 0x128 <ds1820_wr_bit>
     67c:	81 e0       	ldi	r24, 0x01	; 1
     67e:	6f 2d       	mov	r22, r15
     680:	0e 94 94 00 	call	0x128	; 0x128 <ds1820_wr_bit>
     684:	80 e0       	ldi	r24, 0x00	; 0
     686:	6f 2d       	mov	r22, r15
     688:	0e 94 94 00 	call	0x128	; 0x128 <ds1820_wr_bit>
     68c:	80 e0       	ldi	r24, 0x00	; 0
     68e:	6f 2d       	mov	r22, r15
     690:	0e 94 94 00 	call	0x128	; 0x128 <ds1820_wr_bit>
     694:	81 e0       	ldi	r24, 0x01	; 1
     696:	6f 2d       	mov	r22, r15
     698:	0e 94 94 00 	call	0x128	; 0x128 <ds1820_wr_bit>
     69c:	81 e0       	ldi	r24, 0x01	; 1
     69e:	6f 2d       	mov	r22, r15
     6a0:	0e 94 94 00 	call	0x128	; 0x128 <ds1820_wr_bit>
     6a4:	00 c0       	rjmp	.+0      	; 0x6a6 <ds1820_read_temp+0x1f0>
     6a6:	00 c0       	rjmp	.+0      	; 0x6a8 <ds1820_read_temp+0x1f2>
     6a8:	00 00       	nop
     6aa:	80 e0       	ldi	r24, 0x00	; 0
     6ac:	6f 2d       	mov	r22, r15
     6ae:	0e 94 94 00 	call	0x128	; 0x128 <ds1820_wr_bit>
     6b2:	80 e0       	ldi	r24, 0x00	; 0
     6b4:	6f 2d       	mov	r22, r15
     6b6:	0e 94 94 00 	call	0x128	; 0x128 <ds1820_wr_bit>
     6ba:	81 e0       	ldi	r24, 0x01	; 1
     6bc:	6f 2d       	mov	r22, r15
     6be:	0e 94 94 00 	call	0x128	; 0x128 <ds1820_wr_bit>
     6c2:	80 e0       	ldi	r24, 0x00	; 0
     6c4:	6f 2d       	mov	r22, r15
     6c6:	0e 94 94 00 	call	0x128	; 0x128 <ds1820_wr_bit>
     6ca:	80 e0       	ldi	r24, 0x00	; 0
     6cc:	6f 2d       	mov	r22, r15
     6ce:	0e 94 94 00 	call	0x128	; 0x128 <ds1820_wr_bit>
     6d2:	80 e0       	ldi	r24, 0x00	; 0
     6d4:	6f 2d       	mov	r22, r15
     6d6:	0e 94 94 00 	call	0x128	; 0x128 <ds1820_wr_bit>
     6da:	81 e0       	ldi	r24, 0x01	; 1
     6dc:	6f 2d       	mov	r22, r15
     6de:	0e 94 94 00 	call	0x128	; 0x128 <ds1820_wr_bit>
     6e2:	80 e0       	ldi	r24, 0x00	; 0
     6e4:	6f 2d       	mov	r22, r15
     6e6:	0e 94 94 00 	call	0x128	; 0x128 <ds1820_wr_bit>
     6ea:	00 c0       	rjmp	.+0      	; 0x6ec <ds1820_read_temp+0x236>
     6ec:	00 c0       	rjmp	.+0      	; 0x6ee <ds1820_read_temp+0x238>
     6ee:	00 00       	nop
     6f0:	49 ee       	ldi	r20, 0xE9	; 233
     6f2:	53 e0       	ldi	r21, 0x03	; 3
//-----------------------------------------
// Read one bit from DS18S20
//-----------------------------------------
uint8_t ds1820_re_bit(uint8_t used_pin) {
	uint8_t rebit;
	DS1820_DDR |= 1<<used_pin;							// define as ouput
     6f4:	81 b1       	in	r24, 0x01	; 1
     6f6:	80 2b       	or	r24, r16
     6f8:	81 b9       	out	0x01, r24	; 1
  	DS1820_PORT &= ~(1<<used_pin);						//Pull low
     6fa:	82 b1       	in	r24, 0x02	; 2
     6fc:	81 23       	and	r24, r17
     6fe:	82 b9       	out	0x02, r24	; 2
     700:	00 00       	nop
	_delay_us(1);
	DS1820_DDR &= ~(1<<used_pin);						// define as input
     702:	81 b1       	in	r24, 0x01	; 1
     704:	81 23       	and	r24, r17
     706:	81 b9       	out	0x01, r24	; 1
	DS1820_PORT |= 1<<used_pin;							//Pullup on
     708:	82 b1       	in	r24, 0x02	; 2
     70a:	80 2b       	or	r24, r16
     70c:	82 b9       	out	0x02, r24	; 2
     70e:	93 e0       	ldi	r25, 0x03	; 3
     710:	9a 95       	dec	r25
     712:	f1 f7       	brne	.-4      	; 0x710 <ds1820_read_temp+0x25a>
     714:	00 00       	nop
	_delay_us(10);
	rebit = (DS1820_PIN & (1<<used_pin)) >> used_pin; 	//Read bit
     716:	80 b1       	in	r24, 0x00	; 0
     718:	90 e1       	ldi	r25, 0x10	; 16
     71a:	9a 95       	dec	r25
     71c:	f1 f7       	brne	.-4      	; 0x71a <ds1820_read_temp+0x264>
     71e:	00 c0       	rjmp	.+0      	; 0x720 <ds1820_read_temp+0x26a>
     720:	90 e0       	ldi	r25, 0x00	; 0
     722:	8c 21       	and	r24, r12
     724:	9d 21       	and	r25, r13
     726:	0f 2c       	mov	r0, r15
     728:	02 c0       	rjmp	.+4      	; 0x72e <ds1820_read_temp+0x278>
     72a:	95 95       	asr	r25
     72c:	87 95       	ror	r24
     72e:	0a 94       	dec	r0
     730:	e2 f7       	brpl	.-8      	; 0x72a <ds1820_read_temp+0x274>
}
//-----------------------------------------
// Read 1 byte from DS18S20
//-----------------------------------------
uint8_t ds1820_re_byte(uint8_t used_pin) {
	uint8_t rebyte =0x00;
     732:	21 e0       	ldi	r18, 0x01	; 1
     734:	81 30       	cpi	r24, 0x01	; 1
     736:	09 f0       	breq	.+2      	; 0x73a <ds1820_read_temp+0x284>
     738:	20 e0       	ldi	r18, 0x00	; 0
//-----------------------------------------
// Read one bit from DS18S20
//-----------------------------------------
uint8_t ds1820_re_bit(uint8_t used_pin) {
	uint8_t rebit;
	DS1820_DDR |= 1<<used_pin;							// define as ouput
     73a:	81 b1       	in	r24, 0x01	; 1
     73c:	80 2b       	or	r24, r16
     73e:	81 b9       	out	0x01, r24	; 1
  	DS1820_PORT &= ~(1<<used_pin);						//Pull low
     740:	82 b1       	in	r24, 0x02	; 2
     742:	81 23       	and	r24, r17
     744:	82 b9       	out	0x02, r24	; 2
     746:	00 00       	nop
	_delay_us(1);
	DS1820_DDR &= ~(1<<used_pin);						// define as input
     748:	81 b1       	in	r24, 0x01	; 1
     74a:	81 23       	and	r24, r17
     74c:	81 b9       	out	0x01, r24	; 1
	DS1820_PORT |= 1<<used_pin;							//Pullup on
     74e:	82 b1       	in	r24, 0x02	; 2
     750:	80 2b       	or	r24, r16
     752:	82 b9       	out	0x02, r24	; 2
     754:	83 e0       	ldi	r24, 0x03	; 3
     756:	8a 95       	dec	r24
     758:	f1 f7       	brne	.-4      	; 0x756 <ds1820_read_temp+0x2a0>
     75a:	00 00       	nop
	_delay_us(10);
	rebit = (DS1820_PIN & (1<<used_pin)) >> used_pin; 	//Read bit
     75c:	80 b1       	in	r24, 0x00	; 0
     75e:	90 e1       	ldi	r25, 0x10	; 16
     760:	9a 95       	dec	r25
     762:	f1 f7       	brne	.-4      	; 0x760 <ds1820_read_temp+0x2aa>
     764:	00 c0       	rjmp	.+0      	; 0x766 <ds1820_read_temp+0x2b0>
     766:	90 e0       	ldi	r25, 0x00	; 0
     768:	8c 21       	and	r24, r12
     76a:	9d 21       	and	r25, r13
     76c:	0f 2c       	mov	r0, r15
     76e:	02 c0       	rjmp	.+4      	; 0x774 <ds1820_read_temp+0x2be>
     770:	95 95       	asr	r25
     772:	87 95       	ror	r24
     774:	0a 94       	dec	r0
     776:	e2 f7       	brpl	.-8      	; 0x770 <ds1820_read_temp+0x2ba>
	uint8_t i;

	for (i=0; i < 8; i++) {
		rebit=ds1820_re_bit(used_pin);
		//_delay_us(2);									//be on the save side
		if (rebit==1){
     778:	81 30       	cpi	r24, 0x01	; 1
     77a:	09 f4       	brne	.+2      	; 0x77e <ds1820_read_temp+0x2c8>
     77c:	57 c2       	rjmp	.+1198   	; 0xc2c <ds1820_read_temp+0x776>
//-----------------------------------------
// Read one bit from DS18S20
//-----------------------------------------
uint8_t ds1820_re_bit(uint8_t used_pin) {
	uint8_t rebit;
	DS1820_DDR |= 1<<used_pin;							// define as ouput
     77e:	81 b1       	in	r24, 0x01	; 1
     780:	80 2b       	or	r24, r16
     782:	81 b9       	out	0x01, r24	; 1
  	DS1820_PORT &= ~(1<<used_pin);						//Pull low
     784:	82 b1       	in	r24, 0x02	; 2
     786:	81 23       	and	r24, r17
     788:	82 b9       	out	0x02, r24	; 2
     78a:	00 00       	nop
	_delay_us(1);
	DS1820_DDR &= ~(1<<used_pin);						// define as input
     78c:	81 b1       	in	r24, 0x01	; 1
     78e:	81 23       	and	r24, r17
     790:	81 b9       	out	0x01, r24	; 1
	DS1820_PORT |= 1<<used_pin;							//Pullup on
     792:	82 b1       	in	r24, 0x02	; 2
     794:	80 2b       	or	r24, r16
     796:	82 b9       	out	0x02, r24	; 2
     798:	83 e0       	ldi	r24, 0x03	; 3
     79a:	8a 95       	dec	r24
     79c:	f1 f7       	brne	.-4      	; 0x79a <ds1820_read_temp+0x2e4>
     79e:	00 00       	nop
	_delay_us(10);
	rebit = (DS1820_PIN & (1<<used_pin)) >> used_pin; 	//Read bit
     7a0:	80 b1       	in	r24, 0x00	; 0
     7a2:	90 e1       	ldi	r25, 0x10	; 16
     7a4:	9a 95       	dec	r25
     7a6:	f1 f7       	brne	.-4      	; 0x7a4 <ds1820_read_temp+0x2ee>
     7a8:	00 c0       	rjmp	.+0      	; 0x7aa <ds1820_read_temp+0x2f4>
     7aa:	90 e0       	ldi	r25, 0x00	; 0
     7ac:	8c 21       	and	r24, r12
     7ae:	9d 21       	and	r25, r13
     7b0:	0f 2c       	mov	r0, r15
     7b2:	02 c0       	rjmp	.+4      	; 0x7b8 <ds1820_read_temp+0x302>
     7b4:	95 95       	asr	r25
     7b6:	87 95       	ror	r24
     7b8:	0a 94       	dec	r0
     7ba:	e2 f7       	brpl	.-8      	; 0x7b4 <ds1820_read_temp+0x2fe>
	uint8_t i;

	for (i=0; i < 8; i++) {
		rebit=ds1820_re_bit(used_pin);
		//_delay_us(2);									//be on the save side
		if (rebit==1){
     7bc:	81 30       	cpi	r24, 0x01	; 1
     7be:	09 f4       	brne	.+2      	; 0x7c2 <ds1820_read_temp+0x30c>
     7c0:	33 c2       	rjmp	.+1126   	; 0xc28 <ds1820_read_temp+0x772>
//-----------------------------------------
// Read one bit from DS18S20
//-----------------------------------------
uint8_t ds1820_re_bit(uint8_t used_pin) {
	uint8_t rebit;
	DS1820_DDR |= 1<<used_pin;							// define as ouput
     7c2:	81 b1       	in	r24, 0x01	; 1
     7c4:	80 2b       	or	r24, r16
     7c6:	81 b9       	out	0x01, r24	; 1
  	DS1820_PORT &= ~(1<<used_pin);						//Pull low
     7c8:	82 b1       	in	r24, 0x02	; 2
     7ca:	81 23       	and	r24, r17
     7cc:	82 b9       	out	0x02, r24	; 2
     7ce:	00 00       	nop
	_delay_us(1);
	DS1820_DDR &= ~(1<<used_pin);						// define as input
     7d0:	81 b1       	in	r24, 0x01	; 1
     7d2:	81 23       	and	r24, r17
     7d4:	81 b9       	out	0x01, r24	; 1
	DS1820_PORT |= 1<<used_pin;							//Pullup on
     7d6:	82 b1       	in	r24, 0x02	; 2
     7d8:	80 2b       	or	r24, r16
     7da:	82 b9       	out	0x02, r24	; 2
     7dc:	83 e0       	ldi	r24, 0x03	; 3
     7de:	8a 95       	dec	r24
     7e0:	f1 f7       	brne	.-4      	; 0x7de <ds1820_read_temp+0x328>
     7e2:	00 00       	nop
	_delay_us(10);
	rebit = (DS1820_PIN & (1<<used_pin)) >> used_pin; 	//Read bit
     7e4:	80 b1       	in	r24, 0x00	; 0
     7e6:	90 e1       	ldi	r25, 0x10	; 16
     7e8:	9a 95       	dec	r25
     7ea:	f1 f7       	brne	.-4      	; 0x7e8 <ds1820_read_temp+0x332>
     7ec:	00 c0       	rjmp	.+0      	; 0x7ee <ds1820_read_temp+0x338>
     7ee:	90 e0       	ldi	r25, 0x00	; 0
     7f0:	8c 21       	and	r24, r12
     7f2:	9d 21       	and	r25, r13
     7f4:	0f 2c       	mov	r0, r15
     7f6:	02 c0       	rjmp	.+4      	; 0x7fc <ds1820_read_temp+0x346>
     7f8:	95 95       	asr	r25
     7fa:	87 95       	ror	r24
     7fc:	0a 94       	dec	r0
     7fe:	e2 f7       	brpl	.-8      	; 0x7f8 <ds1820_read_temp+0x342>
	uint8_t i;

	for (i=0; i < 8; i++) {
		rebit=ds1820_re_bit(used_pin);
		//_delay_us(2);									//be on the save side
		if (rebit==1){
     800:	81 30       	cpi	r24, 0x01	; 1
     802:	09 f4       	brne	.+2      	; 0x806 <ds1820_read_temp+0x350>
     804:	0f c2       	rjmp	.+1054   	; 0xc24 <ds1820_read_temp+0x76e>
//-----------------------------------------
// Read one bit from DS18S20
//-----------------------------------------
uint8_t ds1820_re_bit(uint8_t used_pin) {
	uint8_t rebit;
	DS1820_DDR |= 1<<used_pin;							// define as ouput
     806:	81 b1       	in	r24, 0x01	; 1
     808:	80 2b       	or	r24, r16
     80a:	81 b9       	out	0x01, r24	; 1
  	DS1820_PORT &= ~(1<<used_pin);						//Pull low
     80c:	82 b1       	in	r24, 0x02	; 2
     80e:	81 23       	and	r24, r17
     810:	82 b9       	out	0x02, r24	; 2
     812:	00 00       	nop
	_delay_us(1);
	DS1820_DDR &= ~(1<<used_pin);						// define as input
     814:	81 b1       	in	r24, 0x01	; 1
     816:	81 23       	and	r24, r17
     818:	81 b9       	out	0x01, r24	; 1
	DS1820_PORT |= 1<<used_pin;							//Pullup on
     81a:	82 b1       	in	r24, 0x02	; 2
     81c:	80 2b       	or	r24, r16
     81e:	82 b9       	out	0x02, r24	; 2
     820:	83 e0       	ldi	r24, 0x03	; 3
     822:	8a 95       	dec	r24
     824:	f1 f7       	brne	.-4      	; 0x822 <ds1820_read_temp+0x36c>
     826:	00 00       	nop
	_delay_us(10);
	rebit = (DS1820_PIN & (1<<used_pin)) >> used_pin; 	//Read bit
     828:	80 b1       	in	r24, 0x00	; 0
     82a:	90 e1       	ldi	r25, 0x10	; 16
     82c:	9a 95       	dec	r25
     82e:	f1 f7       	brne	.-4      	; 0x82c <ds1820_read_temp+0x376>
     830:	00 c0       	rjmp	.+0      	; 0x832 <ds1820_read_temp+0x37c>
     832:	90 e0       	ldi	r25, 0x00	; 0
     834:	8c 21       	and	r24, r12
     836:	9d 21       	and	r25, r13
     838:	0f 2c       	mov	r0, r15
     83a:	02 c0       	rjmp	.+4      	; 0x840 <ds1820_read_temp+0x38a>
     83c:	95 95       	asr	r25
     83e:	87 95       	ror	r24
     840:	0a 94       	dec	r0
     842:	e2 f7       	brpl	.-8      	; 0x83c <ds1820_read_temp+0x386>
	uint8_t i;

	for (i=0; i < 8; i++) {
		rebit=ds1820_re_bit(used_pin);
		//_delay_us(2);									//be on the save side
		if (rebit==1){
     844:	81 30       	cpi	r24, 0x01	; 1
     846:	09 f4       	brne	.+2      	; 0x84a <ds1820_read_temp+0x394>
     848:	eb c1       	rjmp	.+982    	; 0xc20 <ds1820_read_temp+0x76a>
//-----------------------------------------
// Read one bit from DS18S20
//-----------------------------------------
uint8_t ds1820_re_bit(uint8_t used_pin) {
	uint8_t rebit;
	DS1820_DDR |= 1<<used_pin;							// define as ouput
     84a:	81 b1       	in	r24, 0x01	; 1
     84c:	80 2b       	or	r24, r16
     84e:	81 b9       	out	0x01, r24	; 1
  	DS1820_PORT &= ~(1<<used_pin);						//Pull low
     850:	82 b1       	in	r24, 0x02	; 2
     852:	81 23       	and	r24, r17
     854:	82 b9       	out	0x02, r24	; 2
     856:	00 00       	nop
	_delay_us(1);
	DS1820_DDR &= ~(1<<used_pin);						// define as input
     858:	81 b1       	in	r24, 0x01	; 1
     85a:	81 23       	and	r24, r17
     85c:	81 b9       	out	0x01, r24	; 1
	DS1820_PORT |= 1<<used_pin;							//Pullup on
     85e:	82 b1       	in	r24, 0x02	; 2
     860:	80 2b       	or	r24, r16
     862:	82 b9       	out	0x02, r24	; 2
     864:	83 e0       	ldi	r24, 0x03	; 3
     866:	8a 95       	dec	r24
     868:	f1 f7       	brne	.-4      	; 0x866 <ds1820_read_temp+0x3b0>
     86a:	00 00       	nop
	_delay_us(10);
	rebit = (DS1820_PIN & (1<<used_pin)) >> used_pin; 	//Read bit
     86c:	80 b1       	in	r24, 0x00	; 0
     86e:	90 e1       	ldi	r25, 0x10	; 16
     870:	9a 95       	dec	r25
     872:	f1 f7       	brne	.-4      	; 0x870 <ds1820_read_temp+0x3ba>
     874:	00 c0       	rjmp	.+0      	; 0x876 <ds1820_read_temp+0x3c0>
     876:	90 e0       	ldi	r25, 0x00	; 0
     878:	8c 21       	and	r24, r12
     87a:	9d 21       	and	r25, r13
     87c:	0f 2c       	mov	r0, r15
     87e:	02 c0       	rjmp	.+4      	; 0x884 <ds1820_read_temp+0x3ce>
     880:	95 95       	asr	r25
     882:	87 95       	ror	r24
     884:	0a 94       	dec	r0
     886:	e2 f7       	brpl	.-8      	; 0x880 <ds1820_read_temp+0x3ca>
	uint8_t i;

	for (i=0; i < 8; i++) {
		rebit=ds1820_re_bit(used_pin);
		//_delay_us(2);									//be on the save side
		if (rebit==1){
     888:	81 30       	cpi	r24, 0x01	; 1
     88a:	09 f4       	brne	.+2      	; 0x88e <ds1820_read_temp+0x3d8>
     88c:	d3 c1       	rjmp	.+934    	; 0xc34 <ds1820_read_temp+0x77e>
//-----------------------------------------
// Read one bit from DS18S20
//-----------------------------------------
uint8_t ds1820_re_bit(uint8_t used_pin) {
	uint8_t rebit;
	DS1820_DDR |= 1<<used_pin;							// define as ouput
     88e:	81 b1       	in	r24, 0x01	; 1
     890:	80 2b       	or	r24, r16
     892:	81 b9       	out	0x01, r24	; 1
  	DS1820_PORT &= ~(1<<used_pin);						//Pull low
     894:	82 b1       	in	r24, 0x02	; 2
     896:	81 23       	and	r24, r17
     898:	82 b9       	out	0x02, r24	; 2
     89a:	00 00       	nop
	_delay_us(1);
	DS1820_DDR &= ~(1<<used_pin);						// define as input
     89c:	81 b1       	in	r24, 0x01	; 1
     89e:	81 23       	and	r24, r17
     8a0:	81 b9       	out	0x01, r24	; 1
	DS1820_PORT |= 1<<used_pin;							//Pullup on
     8a2:	82 b1       	in	r24, 0x02	; 2
     8a4:	80 2b       	or	r24, r16
     8a6:	82 b9       	out	0x02, r24	; 2
     8a8:	83 e0       	ldi	r24, 0x03	; 3
     8aa:	8a 95       	dec	r24
     8ac:	f1 f7       	brne	.-4      	; 0x8aa <ds1820_read_temp+0x3f4>
     8ae:	00 00       	nop
	_delay_us(10);
	rebit = (DS1820_PIN & (1<<used_pin)) >> used_pin; 	//Read bit
     8b0:	80 b1       	in	r24, 0x00	; 0
     8b2:	90 e1       	ldi	r25, 0x10	; 16
     8b4:	9a 95       	dec	r25
     8b6:	f1 f7       	brne	.-4      	; 0x8b4 <ds1820_read_temp+0x3fe>
     8b8:	00 c0       	rjmp	.+0      	; 0x8ba <ds1820_read_temp+0x404>
     8ba:	90 e0       	ldi	r25, 0x00	; 0
     8bc:	8c 21       	and	r24, r12
     8be:	9d 21       	and	r25, r13
     8c0:	0f 2c       	mov	r0, r15
     8c2:	02 c0       	rjmp	.+4      	; 0x8c8 <ds1820_read_temp+0x412>
     8c4:	95 95       	asr	r25
     8c6:	87 95       	ror	r24
     8c8:	0a 94       	dec	r0
     8ca:	e2 f7       	brpl	.-8      	; 0x8c4 <ds1820_read_temp+0x40e>
	uint8_t i;

	for (i=0; i < 8; i++) {
		rebit=ds1820_re_bit(used_pin);
		//_delay_us(2);									//be on the save side
		if (rebit==1){
     8cc:	81 30       	cpi	r24, 0x01	; 1
     8ce:	09 f4       	brne	.+2      	; 0x8d2 <ds1820_read_temp+0x41c>
     8d0:	af c1       	rjmp	.+862    	; 0xc30 <ds1820_read_temp+0x77a>
//-----------------------------------------
// Read one bit from DS18S20
//-----------------------------------------
uint8_t ds1820_re_bit(uint8_t used_pin) {
	uint8_t rebit;
	DS1820_DDR |= 1<<used_pin;							// define as ouput
     8d2:	81 b1       	in	r24, 0x01	; 1
     8d4:	80 2b       	or	r24, r16
     8d6:	81 b9       	out	0x01, r24	; 1
  	DS1820_PORT &= ~(1<<used_pin);						//Pull low
     8d8:	82 b1       	in	r24, 0x02	; 2
     8da:	81 23       	and	r24, r17
     8dc:	82 b9       	out	0x02, r24	; 2
     8de:	00 00       	nop
	_delay_us(1);
	DS1820_DDR &= ~(1<<used_pin);						// define as input
     8e0:	81 b1       	in	r24, 0x01	; 1
     8e2:	81 23       	and	r24, r17
     8e4:	81 b9       	out	0x01, r24	; 1
	DS1820_PORT |= 1<<used_pin;							//Pullup on
     8e6:	82 b1       	in	r24, 0x02	; 2
     8e8:	80 2b       	or	r24, r16
     8ea:	82 b9       	out	0x02, r24	; 2
     8ec:	83 e0       	ldi	r24, 0x03	; 3
     8ee:	8a 95       	dec	r24
     8f0:	f1 f7       	brne	.-4      	; 0x8ee <ds1820_read_temp+0x438>
     8f2:	00 00       	nop
	_delay_us(10);
	rebit = (DS1820_PIN & (1<<used_pin)) >> used_pin; 	//Read bit
     8f4:	80 b1       	in	r24, 0x00	; 0
     8f6:	90 e1       	ldi	r25, 0x10	; 16
     8f8:	9a 95       	dec	r25
     8fa:	f1 f7       	brne	.-4      	; 0x8f8 <ds1820_read_temp+0x442>
     8fc:	00 c0       	rjmp	.+0      	; 0x8fe <ds1820_read_temp+0x448>
     8fe:	90 e0       	ldi	r25, 0x00	; 0
     900:	8c 21       	and	r24, r12
     902:	9d 21       	and	r25, r13
     904:	0f 2c       	mov	r0, r15
     906:	02 c0       	rjmp	.+4      	; 0x90c <ds1820_read_temp+0x456>
     908:	95 95       	asr	r25
     90a:	87 95       	ror	r24
     90c:	0a 94       	dec	r0
     90e:	e2 f7       	brpl	.-8      	; 0x908 <ds1820_read_temp+0x452>
	uint8_t i;

	for (i=0; i < 8; i++) {
		rebit=ds1820_re_bit(used_pin);
		//_delay_us(2);									//be on the save side
		if (rebit==1){
     910:	81 30       	cpi	r24, 0x01	; 1
     912:	09 f4       	brne	.+2      	; 0x916 <ds1820_read_temp+0x460>
     914:	7b c1       	rjmp	.+758    	; 0xc0c <ds1820_read_temp+0x756>
//----------------------------------------
// Reset DS18S20
//----------------------------------------
uint8_t ds1820_reset(uint8_t used_pin) {
	uint8_t err=100;
	DS1820_DDR |= 1<<used_pin;						// define as ouput
     916:	81 b1       	in	r24, 0x01	; 1
     918:	80 2b       	or	r24, r16
     91a:	81 b9       	out	0x01, r24	; 1
	DS1820_PORT &= ~(1<<used_pin);					//Pull low
     91c:	82 b1       	in	r24, 0x02	; 2
     91e:	81 23       	and	r24, r17
     920:	82 b9       	out	0x02, r24	; 2
     922:	80 ea       	ldi	r24, 0xA0	; 160
     924:	8a 95       	dec	r24
     926:	f1 f7       	brne	.-4      	; 0x924 <ds1820_read_temp+0x46e>
	_delay_us(480);				;					// 480 us
	DS1820_DDR &= ~(1<<used_pin);						// define as input
     928:	81 b1       	in	r24, 0x01	; 1
     92a:	81 23       	and	r24, r17
     92c:	81 b9       	out	0x01, r24	; 1
	DS1820_PORT |= 1<<used_pin;						//Pullup on
     92e:	82 b1       	in	r24, 0x02	; 2
     930:	80 2b       	or	r24, r16
     932:	82 b9       	out	0x02, r24	; 2
     934:	96 e1       	ldi	r25, 0x16	; 22
     936:	9a 95       	dec	r25
     938:	f1 f7       	brne	.-4      	; 0x936 <ds1820_read_temp+0x480>
	_delay_us(66);										// 66 us
	err = (DS1820_PIN & (1<<used_pin)) >> used_pin;	// no presence detect --> err=1 otherwise err=0
     93a:	80 b1       	in	r24, 0x00	; 0
     93c:	80 e5       	ldi	r24, 0x50	; 80
     93e:	8a 95       	dec	r24
     940:	f1 f7       	brne	.-4      	; 0x93e <ds1820_read_temp+0x488>
	_delay_us(240);									// 240 us
	if((DS1820_PIN & (1<<used_pin)) == 0 ){			// short circuit --> err=2
     942:	80 b1       	in	r24, 0x00	; 0
// Write 1 byte to DS18S20
//-----------------------------------------
void ds1820_wr_byte(uint8_t wrbyte,uint8_t used_pin) {
	uint8_t i;
	for (i=0; i < 8; i++) { // writes byte, one bit at a time
		ds1820_wr_bit((wrbyte & 0b00000001),used_pin);
     944:	80 e0       	ldi	r24, 0x00	; 0
     946:	6f 2d       	mov	r22, r15
     948:	0e 94 94 00 	call	0x128	; 0x128 <ds1820_wr_bit>
     94c:	80 e0       	ldi	r24, 0x00	; 0
     94e:	6f 2d       	mov	r22, r15
     950:	0e 94 94 00 	call	0x128	; 0x128 <ds1820_wr_bit>
     954:	81 e0       	ldi	r24, 0x01	; 1
     956:	6f 2d       	mov	r22, r15
     958:	0e 94 94 00 	call	0x128	; 0x128 <ds1820_wr_bit>
     95c:	81 e0       	ldi	r24, 0x01	; 1
     95e:	6f 2d       	mov	r22, r15
     960:	0e 94 94 00 	call	0x128	; 0x128 <ds1820_wr_bit>
     964:	80 e0       	ldi	r24, 0x00	; 0
     966:	6f 2d       	mov	r22, r15
     968:	0e 94 94 00 	call	0x128	; 0x128 <ds1820_wr_bit>
     96c:	80 e0       	ldi	r24, 0x00	; 0
     96e:	6f 2d       	mov	r22, r15
     970:	0e 94 94 00 	call	0x128	; 0x128 <ds1820_wr_bit>
     974:	81 e0       	ldi	r24, 0x01	; 1
     976:	6f 2d       	mov	r22, r15
     978:	0e 94 94 00 	call	0x128	; 0x128 <ds1820_wr_bit>
     97c:	81 e0       	ldi	r24, 0x01	; 1
     97e:	6f 2d       	mov	r22, r15
     980:	0e 94 94 00 	call	0x128	; 0x128 <ds1820_wr_bit>
     984:	00 c0       	rjmp	.+0      	; 0x986 <ds1820_read_temp+0x4d0>
     986:	00 c0       	rjmp	.+0      	; 0x988 <ds1820_read_temp+0x4d2>
     988:	00 00       	nop
     98a:	80 e0       	ldi	r24, 0x00	; 0
     98c:	6f 2d       	mov	r22, r15
     98e:	0e 94 94 00 	call	0x128	; 0x128 <ds1820_wr_bit>
     992:	81 e0       	ldi	r24, 0x01	; 1
     994:	6f 2d       	mov	r22, r15
     996:	0e 94 94 00 	call	0x128	; 0x128 <ds1820_wr_bit>
     99a:	81 e0       	ldi	r24, 0x01	; 1
     99c:	6f 2d       	mov	r22, r15
     99e:	0e 94 94 00 	call	0x128	; 0x128 <ds1820_wr_bit>
     9a2:	81 e0       	ldi	r24, 0x01	; 1
     9a4:	6f 2d       	mov	r22, r15
     9a6:	0e 94 94 00 	call	0x128	; 0x128 <ds1820_wr_bit>
     9aa:	81 e0       	ldi	r24, 0x01	; 1
     9ac:	6f 2d       	mov	r22, r15
     9ae:	0e 94 94 00 	call	0x128	; 0x128 <ds1820_wr_bit>
     9b2:	81 e0       	ldi	r24, 0x01	; 1
     9b4:	6f 2d       	mov	r22, r15
     9b6:	0e 94 94 00 	call	0x128	; 0x128 <ds1820_wr_bit>
     9ba:	80 e0       	ldi	r24, 0x00	; 0
     9bc:	6f 2d       	mov	r22, r15
     9be:	0e 94 94 00 	call	0x128	; 0x128 <ds1820_wr_bit>
     9c2:	81 e0       	ldi	r24, 0x01	; 1
     9c4:	6f 2d       	mov	r22, r15
     9c6:	0e 94 94 00 	call	0x128	; 0x128 <ds1820_wr_bit>
     9ca:	00 c0       	rjmp	.+0      	; 0x9cc <ds1820_read_temp+0x516>
     9cc:	00 c0       	rjmp	.+0      	; 0x9ce <ds1820_read_temp+0x518>
     9ce:	00 00       	nop
     9d0:	fe 01       	movw	r30, r28
     9d2:	31 96       	adiw	r30, 0x01	; 1
	_delay_us(5);
}
//-----------------------------------------
// Read temperature
//-----------------------------------------
float  ds1820_read_temp(uint8_t used_pin)	 {
     9d4:	ae 01       	movw	r20, r28
     9d6:	46 5f       	subi	r20, 0xF6	; 246
     9d8:	5f 4f       	sbci	r21, 0xFF	; 255
     9da:	d1 c0       	rjmp	.+418    	; 0xb7e <ds1820_read_temp+0x6c8>
//-----------------------------------------
// Read one bit from DS18S20
//-----------------------------------------
uint8_t ds1820_re_bit(uint8_t used_pin) {
	uint8_t rebit;
	DS1820_DDR |= 1<<used_pin;							// define as ouput
     9dc:	81 b1       	in	r24, 0x01	; 1
     9de:	80 2b       	or	r24, r16
     9e0:	81 b9       	out	0x01, r24	; 1
  	DS1820_PORT &= ~(1<<used_pin);						//Pull low
     9e2:	82 b1       	in	r24, 0x02	; 2
     9e4:	81 23       	and	r24, r17
     9e6:	82 b9       	out	0x02, r24	; 2
     9e8:	00 00       	nop
	_delay_us(1);
	DS1820_DDR &= ~(1<<used_pin);						// define as input
     9ea:	81 b1       	in	r24, 0x01	; 1
     9ec:	81 23       	and	r24, r17
     9ee:	81 b9       	out	0x01, r24	; 1
	DS1820_PORT |= 1<<used_pin;							//Pullup on
     9f0:	82 b1       	in	r24, 0x02	; 2
     9f2:	80 2b       	or	r24, r16
     9f4:	82 b9       	out	0x02, r24	; 2
     9f6:	83 e0       	ldi	r24, 0x03	; 3
     9f8:	8a 95       	dec	r24
     9fa:	f1 f7       	brne	.-4      	; 0x9f8 <ds1820_read_temp+0x542>
     9fc:	00 00       	nop
	_delay_us(10);
	rebit = (DS1820_PIN & (1<<used_pin)) >> used_pin; 	//Read bit
     9fe:	80 b1       	in	r24, 0x00	; 0
     a00:	90 e1       	ldi	r25, 0x10	; 16
     a02:	9a 95       	dec	r25
     a04:	f1 f7       	brne	.-4      	; 0xa02 <ds1820_read_temp+0x54c>
     a06:	00 c0       	rjmp	.+0      	; 0xa08 <ds1820_read_temp+0x552>
     a08:	90 e0       	ldi	r25, 0x00	; 0
     a0a:	8c 21       	and	r24, r12
     a0c:	9d 21       	and	r25, r13
     a0e:	0f 2c       	mov	r0, r15
     a10:	02 c0       	rjmp	.+4      	; 0xa16 <ds1820_read_temp+0x560>
     a12:	95 95       	asr	r25
     a14:	87 95       	ror	r24
     a16:	0a 94       	dec	r0
     a18:	e2 f7       	brpl	.-8      	; 0xa12 <ds1820_read_temp+0x55c>
	uint8_t i;

	for (i=0; i < 8; i++) {
		rebit=ds1820_re_bit(used_pin);
		//_delay_us(2);									//be on the save side
		if (rebit==1){
     a1a:	81 30       	cpi	r24, 0x01	; 1
     a1c:	09 f4       	brne	.+2      	; 0xa20 <ds1820_read_temp+0x56a>
     a1e:	16 c1       	rjmp	.+556    	; 0xc4c <ds1820_read_temp+0x796>
//-----------------------------------------
// Read one bit from DS18S20
//-----------------------------------------
uint8_t ds1820_re_bit(uint8_t used_pin) {
	uint8_t rebit;
	DS1820_DDR |= 1<<used_pin;							// define as ouput
     a20:	81 b1       	in	r24, 0x01	; 1
     a22:	80 2b       	or	r24, r16
     a24:	81 b9       	out	0x01, r24	; 1
  	DS1820_PORT &= ~(1<<used_pin);						//Pull low
     a26:	82 b1       	in	r24, 0x02	; 2
     a28:	81 23       	and	r24, r17
     a2a:	82 b9       	out	0x02, r24	; 2
     a2c:	00 00       	nop
	_delay_us(1);
	DS1820_DDR &= ~(1<<used_pin);						// define as input
     a2e:	81 b1       	in	r24, 0x01	; 1
     a30:	81 23       	and	r24, r17
     a32:	81 b9       	out	0x01, r24	; 1
	DS1820_PORT |= 1<<used_pin;							//Pullup on
     a34:	82 b1       	in	r24, 0x02	; 2
     a36:	80 2b       	or	r24, r16
     a38:	82 b9       	out	0x02, r24	; 2
     a3a:	83 e0       	ldi	r24, 0x03	; 3
     a3c:	8a 95       	dec	r24
     a3e:	f1 f7       	brne	.-4      	; 0xa3c <ds1820_read_temp+0x586>
     a40:	00 00       	nop
	_delay_us(10);
	rebit = (DS1820_PIN & (1<<used_pin)) >> used_pin; 	//Read bit
     a42:	80 b1       	in	r24, 0x00	; 0
     a44:	90 e1       	ldi	r25, 0x10	; 16
     a46:	9a 95       	dec	r25
     a48:	f1 f7       	brne	.-4      	; 0xa46 <ds1820_read_temp+0x590>
     a4a:	00 c0       	rjmp	.+0      	; 0xa4c <ds1820_read_temp+0x596>
     a4c:	90 e0       	ldi	r25, 0x00	; 0
     a4e:	8c 21       	and	r24, r12
     a50:	9d 21       	and	r25, r13
     a52:	0f 2c       	mov	r0, r15
     a54:	02 c0       	rjmp	.+4      	; 0xa5a <ds1820_read_temp+0x5a4>
     a56:	95 95       	asr	r25
     a58:	87 95       	ror	r24
     a5a:	0a 94       	dec	r0
     a5c:	e2 f7       	brpl	.-8      	; 0xa56 <ds1820_read_temp+0x5a0>
	uint8_t i;

	for (i=0; i < 8; i++) {
		rebit=ds1820_re_bit(used_pin);
		//_delay_us(2);									//be on the save side
		if (rebit==1){
     a5e:	81 30       	cpi	r24, 0x01	; 1
     a60:	09 f4       	brne	.+2      	; 0xa64 <ds1820_read_temp+0x5ae>
     a62:	f2 c0       	rjmp	.+484    	; 0xc48 <ds1820_read_temp+0x792>
//-----------------------------------------
// Read one bit from DS18S20
//-----------------------------------------
uint8_t ds1820_re_bit(uint8_t used_pin) {
	uint8_t rebit;
	DS1820_DDR |= 1<<used_pin;							// define as ouput
     a64:	81 b1       	in	r24, 0x01	; 1
     a66:	80 2b       	or	r24, r16
     a68:	81 b9       	out	0x01, r24	; 1
  	DS1820_PORT &= ~(1<<used_pin);						//Pull low
     a6a:	82 b1       	in	r24, 0x02	; 2
     a6c:	81 23       	and	r24, r17
     a6e:	82 b9       	out	0x02, r24	; 2
     a70:	00 00       	nop
	_delay_us(1);
	DS1820_DDR &= ~(1<<used_pin);						// define as input
     a72:	81 b1       	in	r24, 0x01	; 1
     a74:	81 23       	and	r24, r17
     a76:	81 b9       	out	0x01, r24	; 1
	DS1820_PORT |= 1<<used_pin;							//Pullup on
     a78:	82 b1       	in	r24, 0x02	; 2
     a7a:	80 2b       	or	r24, r16
     a7c:	82 b9       	out	0x02, r24	; 2
     a7e:	83 e0       	ldi	r24, 0x03	; 3
     a80:	8a 95       	dec	r24
     a82:	f1 f7       	brne	.-4      	; 0xa80 <ds1820_read_temp+0x5ca>
     a84:	00 00       	nop
	_delay_us(10);
	rebit = (DS1820_PIN & (1<<used_pin)) >> used_pin; 	//Read bit
     a86:	80 b1       	in	r24, 0x00	; 0
     a88:	90 e1       	ldi	r25, 0x10	; 16
     a8a:	9a 95       	dec	r25
     a8c:	f1 f7       	brne	.-4      	; 0xa8a <ds1820_read_temp+0x5d4>
     a8e:	00 c0       	rjmp	.+0      	; 0xa90 <ds1820_read_temp+0x5da>
     a90:	90 e0       	ldi	r25, 0x00	; 0
     a92:	8c 21       	and	r24, r12
     a94:	9d 21       	and	r25, r13
     a96:	0f 2c       	mov	r0, r15
     a98:	02 c0       	rjmp	.+4      	; 0xa9e <ds1820_read_temp+0x5e8>
     a9a:	95 95       	asr	r25
     a9c:	87 95       	ror	r24
     a9e:	0a 94       	dec	r0
     aa0:	e2 f7       	brpl	.-8      	; 0xa9a <ds1820_read_temp+0x5e4>
	uint8_t i;

	for (i=0; i < 8; i++) {
		rebit=ds1820_re_bit(used_pin);
		//_delay_us(2);									//be on the save side
		if (rebit==1){
     aa2:	81 30       	cpi	r24, 0x01	; 1
     aa4:	09 f4       	brne	.+2      	; 0xaa8 <ds1820_read_temp+0x5f2>
     aa6:	ce c0       	rjmp	.+412    	; 0xc44 <ds1820_read_temp+0x78e>
//-----------------------------------------
// Read one bit from DS18S20
//-----------------------------------------
uint8_t ds1820_re_bit(uint8_t used_pin) {
	uint8_t rebit;
	DS1820_DDR |= 1<<used_pin;							// define as ouput
     aa8:	81 b1       	in	r24, 0x01	; 1
     aaa:	80 2b       	or	r24, r16
     aac:	81 b9       	out	0x01, r24	; 1
  	DS1820_PORT &= ~(1<<used_pin);						//Pull low
     aae:	82 b1       	in	r24, 0x02	; 2
     ab0:	81 23       	and	r24, r17
     ab2:	82 b9       	out	0x02, r24	; 2
     ab4:	00 00       	nop
	_delay_us(1);
	DS1820_DDR &= ~(1<<used_pin);						// define as input
     ab6:	81 b1       	in	r24, 0x01	; 1
     ab8:	81 23       	and	r24, r17
     aba:	81 b9       	out	0x01, r24	; 1
	DS1820_PORT |= 1<<used_pin;							//Pullup on
     abc:	82 b1       	in	r24, 0x02	; 2
     abe:	80 2b       	or	r24, r16
     ac0:	82 b9       	out	0x02, r24	; 2
     ac2:	83 e0       	ldi	r24, 0x03	; 3
     ac4:	8a 95       	dec	r24
     ac6:	f1 f7       	brne	.-4      	; 0xac4 <ds1820_read_temp+0x60e>
     ac8:	00 00       	nop
	_delay_us(10);
	rebit = (DS1820_PIN & (1<<used_pin)) >> used_pin; 	//Read bit
     aca:	80 b1       	in	r24, 0x00	; 0
     acc:	90 e1       	ldi	r25, 0x10	; 16
     ace:	9a 95       	dec	r25
     ad0:	f1 f7       	brne	.-4      	; 0xace <ds1820_read_temp+0x618>
     ad2:	00 c0       	rjmp	.+0      	; 0xad4 <ds1820_read_temp+0x61e>
     ad4:	90 e0       	ldi	r25, 0x00	; 0
     ad6:	8c 21       	and	r24, r12
     ad8:	9d 21       	and	r25, r13
     ada:	0f 2c       	mov	r0, r15
     adc:	02 c0       	rjmp	.+4      	; 0xae2 <ds1820_read_temp+0x62c>
     ade:	95 95       	asr	r25
     ae0:	87 95       	ror	r24
     ae2:	0a 94       	dec	r0
     ae4:	e2 f7       	brpl	.-8      	; 0xade <ds1820_read_temp+0x628>
	uint8_t i;

	for (i=0; i < 8; i++) {
		rebit=ds1820_re_bit(used_pin);
		//_delay_us(2);									//be on the save side
		if (rebit==1){
     ae6:	81 30       	cpi	r24, 0x01	; 1
     ae8:	09 f4       	brne	.+2      	; 0xaec <ds1820_read_temp+0x636>
     aea:	aa c0       	rjmp	.+340    	; 0xc40 <ds1820_read_temp+0x78a>
//-----------------------------------------
// Read one bit from DS18S20
//-----------------------------------------
uint8_t ds1820_re_bit(uint8_t used_pin) {
	uint8_t rebit;
	DS1820_DDR |= 1<<used_pin;							// define as ouput
     aec:	81 b1       	in	r24, 0x01	; 1
     aee:	80 2b       	or	r24, r16
     af0:	81 b9       	out	0x01, r24	; 1
  	DS1820_PORT &= ~(1<<used_pin);						//Pull low
     af2:	82 b1       	in	r24, 0x02	; 2
     af4:	81 23       	and	r24, r17
     af6:	82 b9       	out	0x02, r24	; 2
     af8:	00 00       	nop
	_delay_us(1);
	DS1820_DDR &= ~(1<<used_pin);						// define as input
     afa:	81 b1       	in	r24, 0x01	; 1
     afc:	81 23       	and	r24, r17
     afe:	81 b9       	out	0x01, r24	; 1
	DS1820_PORT |= 1<<used_pin;							//Pullup on
     b00:	82 b1       	in	r24, 0x02	; 2
     b02:	80 2b       	or	r24, r16
     b04:	82 b9       	out	0x02, r24	; 2
     b06:	83 e0       	ldi	r24, 0x03	; 3
     b08:	8a 95       	dec	r24
     b0a:	f1 f7       	brne	.-4      	; 0xb08 <ds1820_read_temp+0x652>
     b0c:	00 00       	nop
	_delay_us(10);
	rebit = (DS1820_PIN & (1<<used_pin)) >> used_pin; 	//Read bit
     b0e:	80 b1       	in	r24, 0x00	; 0
     b10:	90 e1       	ldi	r25, 0x10	; 16
     b12:	9a 95       	dec	r25
     b14:	f1 f7       	brne	.-4      	; 0xb12 <ds1820_read_temp+0x65c>
     b16:	00 c0       	rjmp	.+0      	; 0xb18 <ds1820_read_temp+0x662>
     b18:	90 e0       	ldi	r25, 0x00	; 0
     b1a:	8c 21       	and	r24, r12
     b1c:	9d 21       	and	r25, r13
     b1e:	0f 2c       	mov	r0, r15
     b20:	02 c0       	rjmp	.+4      	; 0xb26 <ds1820_read_temp+0x670>
     b22:	95 95       	asr	r25
     b24:	87 95       	ror	r24
     b26:	0a 94       	dec	r0
     b28:	e2 f7       	brpl	.-8      	; 0xb22 <ds1820_read_temp+0x66c>
	uint8_t i;

	for (i=0; i < 8; i++) {
		rebit=ds1820_re_bit(used_pin);
		//_delay_us(2);									//be on the save side
		if (rebit==1){
     b2a:	81 30       	cpi	r24, 0x01	; 1
     b2c:	09 f4       	brne	.+2      	; 0xb30 <ds1820_read_temp+0x67a>
     b2e:	86 c0       	rjmp	.+268    	; 0xc3c <ds1820_read_temp+0x786>
//-----------------------------------------
// Read one bit from DS18S20
//-----------------------------------------
uint8_t ds1820_re_bit(uint8_t used_pin) {
	uint8_t rebit;
	DS1820_DDR |= 1<<used_pin;							// define as ouput
     b30:	81 b1       	in	r24, 0x01	; 1
     b32:	80 2b       	or	r24, r16
     b34:	81 b9       	out	0x01, r24	; 1
  	DS1820_PORT &= ~(1<<used_pin);						//Pull low
     b36:	82 b1       	in	r24, 0x02	; 2
     b38:	81 23       	and	r24, r17
     b3a:	82 b9       	out	0x02, r24	; 2
     b3c:	00 00       	nop
	_delay_us(1);
	DS1820_DDR &= ~(1<<used_pin);						// define as input
     b3e:	81 b1       	in	r24, 0x01	; 1
     b40:	81 23       	and	r24, r17
     b42:	81 b9       	out	0x01, r24	; 1
	DS1820_PORT |= 1<<used_pin;							//Pullup on
     b44:	82 b1       	in	r24, 0x02	; 2
     b46:	80 2b       	or	r24, r16
     b48:	82 b9       	out	0x02, r24	; 2
     b4a:	83 e0       	ldi	r24, 0x03	; 3
     b4c:	8a 95       	dec	r24
     b4e:	f1 f7       	brne	.-4      	; 0xb4c <ds1820_read_temp+0x696>
     b50:	00 00       	nop
	_delay_us(10);
	rebit = (DS1820_PIN & (1<<used_pin)) >> used_pin; 	//Read bit
     b52:	80 b1       	in	r24, 0x00	; 0
     b54:	90 e1       	ldi	r25, 0x10	; 16
     b56:	9a 95       	dec	r25
     b58:	f1 f7       	brne	.-4      	; 0xb56 <ds1820_read_temp+0x6a0>
     b5a:	00 c0       	rjmp	.+0      	; 0xb5c <ds1820_read_temp+0x6a6>
     b5c:	90 e0       	ldi	r25, 0x00	; 0
     b5e:	8c 21       	and	r24, r12
     b60:	9d 21       	and	r25, r13
     b62:	0f 2c       	mov	r0, r15
     b64:	02 c0       	rjmp	.+4      	; 0xb6a <ds1820_read_temp+0x6b4>
     b66:	95 95       	asr	r25
     b68:	87 95       	ror	r24
     b6a:	0a 94       	dec	r0
     b6c:	e2 f7       	brpl	.-8      	; 0xb66 <ds1820_read_temp+0x6b0>
	uint8_t i;

	for (i=0; i < 8; i++) {
		rebit=ds1820_re_bit(used_pin);
		//_delay_us(2);									//be on the save side
		if (rebit==1){
     b6e:	81 30       	cpi	r24, 0x01	; 1
     b70:	09 f4       	brne	.+2      	; 0xb74 <ds1820_read_temp+0x6be>
     b72:	62 c0       	rjmp	.+196    	; 0xc38 <ds1820_read_temp+0x782>
	    error=ds1820_reset(used_pin);								//5. Reset
	    ds1820_wr_byte(0xCC,used_pin);  							//6. skip ROM
	    ds1820_wr_byte(0xBE,used_pin);  							//7. Read entire scratchpad 9 bytes
    
	    for (i=0; i<9; i++) {   									//8. Get scratchpad byte by byte
			scratchpad[i]=ds1820_re_byte(used_pin); 					//9. read one DS18S20 byte
     b74:	21 93       	st	Z+, r18
		}									 
	    error=ds1820_reset(used_pin);								//5. Reset
	    ds1820_wr_byte(0xCC,used_pin);  							//6. skip ROM
	    ds1820_wr_byte(0xBE,used_pin);  							//7. Read entire scratchpad 9 bytes
    
	    for (i=0; i<9; i++) {   									//8. Get scratchpad byte by byte
     b76:	e4 17       	cp	r30, r20
     b78:	f5 07       	cpc	r31, r21
     b7a:	09 f4       	brne	.+2      	; 0xb7e <ds1820_read_temp+0x6c8>
     b7c:	e1 cc       	rjmp	.-1598   	; 0x540 <ds1820_read_temp+0x8a>
//-----------------------------------------
// Read one bit from DS18S20
//-----------------------------------------
uint8_t ds1820_re_bit(uint8_t used_pin) {
	uint8_t rebit;
	DS1820_DDR |= 1<<used_pin;							// define as ouput
     b7e:	81 b1       	in	r24, 0x01	; 1
     b80:	80 2b       	or	r24, r16
     b82:	81 b9       	out	0x01, r24	; 1
  	DS1820_PORT &= ~(1<<used_pin);						//Pull low
     b84:	82 b1       	in	r24, 0x02	; 2
     b86:	81 23       	and	r24, r17
     b88:	82 b9       	out	0x02, r24	; 2
     b8a:	00 00       	nop
	_delay_us(1);
	DS1820_DDR &= ~(1<<used_pin);						// define as input
     b8c:	81 b1       	in	r24, 0x01	; 1
     b8e:	81 23       	and	r24, r17
     b90:	81 b9       	out	0x01, r24	; 1
	DS1820_PORT |= 1<<used_pin;							//Pullup on
     b92:	82 b1       	in	r24, 0x02	; 2
     b94:	80 2b       	or	r24, r16
     b96:	82 b9       	out	0x02, r24	; 2
     b98:	93 e0       	ldi	r25, 0x03	; 3
     b9a:	9a 95       	dec	r25
     b9c:	f1 f7       	brne	.-4      	; 0xb9a <ds1820_read_temp+0x6e4>
     b9e:	00 00       	nop
	_delay_us(10);
	rebit = (DS1820_PIN & (1<<used_pin)) >> used_pin; 	//Read bit
     ba0:	80 b1       	in	r24, 0x00	; 0
     ba2:	90 e1       	ldi	r25, 0x10	; 16
     ba4:	9a 95       	dec	r25
     ba6:	f1 f7       	brne	.-4      	; 0xba4 <ds1820_read_temp+0x6ee>
     ba8:	00 c0       	rjmp	.+0      	; 0xbaa <ds1820_read_temp+0x6f4>
     baa:	90 e0       	ldi	r25, 0x00	; 0
     bac:	8c 21       	and	r24, r12
     bae:	9d 21       	and	r25, r13
     bb0:	0f 2c       	mov	r0, r15
     bb2:	02 c0       	rjmp	.+4      	; 0xbb8 <ds1820_read_temp+0x702>
     bb4:	95 95       	asr	r25
     bb6:	87 95       	ror	r24
     bb8:	0a 94       	dec	r0
     bba:	e2 f7       	brpl	.-8      	; 0xbb4 <ds1820_read_temp+0x6fe>
}
//-----------------------------------------
// Read 1 byte from DS18S20
//-----------------------------------------
uint8_t ds1820_re_byte(uint8_t used_pin) {
	uint8_t rebyte =0x00;
     bbc:	21 e0       	ldi	r18, 0x01	; 1
     bbe:	81 30       	cpi	r24, 0x01	; 1
     bc0:	09 f0       	breq	.+2      	; 0xbc4 <ds1820_read_temp+0x70e>
     bc2:	20 e0       	ldi	r18, 0x00	; 0
//-----------------------------------------
// Read one bit from DS18S20
//-----------------------------------------
uint8_t ds1820_re_bit(uint8_t used_pin) {
	uint8_t rebit;
	DS1820_DDR |= 1<<used_pin;							// define as ouput
     bc4:	81 b1       	in	r24, 0x01	; 1
     bc6:	80 2b       	or	r24, r16
     bc8:	81 b9       	out	0x01, r24	; 1
  	DS1820_PORT &= ~(1<<used_pin);						//Pull low
     bca:	82 b1       	in	r24, 0x02	; 2
     bcc:	81 23       	and	r24, r17
     bce:	82 b9       	out	0x02, r24	; 2
     bd0:	00 00       	nop
	_delay_us(1);
	DS1820_DDR &= ~(1<<used_pin);						// define as input
     bd2:	81 b1       	in	r24, 0x01	; 1
     bd4:	81 23       	and	r24, r17
     bd6:	81 b9       	out	0x01, r24	; 1
	DS1820_PORT |= 1<<used_pin;							//Pullup on
     bd8:	82 b1       	in	r24, 0x02	; 2
     bda:	80 2b       	or	r24, r16
     bdc:	82 b9       	out	0x02, r24	; 2
     bde:	83 e0       	ldi	r24, 0x03	; 3
     be0:	8a 95       	dec	r24
     be2:	f1 f7       	brne	.-4      	; 0xbe0 <ds1820_read_temp+0x72a>
     be4:	00 00       	nop
	_delay_us(10);
	rebit = (DS1820_PIN & (1<<used_pin)) >> used_pin; 	//Read bit
     be6:	80 b1       	in	r24, 0x00	; 0
     be8:	90 e1       	ldi	r25, 0x10	; 16
     bea:	9a 95       	dec	r25
     bec:	f1 f7       	brne	.-4      	; 0xbea <ds1820_read_temp+0x734>
     bee:	00 c0       	rjmp	.+0      	; 0xbf0 <ds1820_read_temp+0x73a>
     bf0:	90 e0       	ldi	r25, 0x00	; 0
     bf2:	8c 21       	and	r24, r12
     bf4:	9d 21       	and	r25, r13
     bf6:	0f 2c       	mov	r0, r15
     bf8:	02 c0       	rjmp	.+4      	; 0xbfe <ds1820_read_temp+0x748>
     bfa:	95 95       	asr	r25
     bfc:	87 95       	ror	r24
     bfe:	0a 94       	dec	r0
     c00:	e2 f7       	brpl	.-8      	; 0xbfa <ds1820_read_temp+0x744>
	uint8_t i;

	for (i=0; i < 8; i++) {
		rebit=ds1820_re_bit(used_pin);
		//_delay_us(2);									//be on the save side
		if (rebit==1){
     c02:	81 30       	cpi	r24, 0x01	; 1
     c04:	09 f0       	breq	.+2      	; 0xc08 <ds1820_read_temp+0x752>
     c06:	ea ce       	rjmp	.-556    	; 0x9dc <ds1820_read_temp+0x526>
			rebyte|=(1<<i);
     c08:	22 60       	ori	r18, 0x02	; 2
     c0a:	e8 ce       	rjmp	.-560    	; 0x9dc <ds1820_read_temp+0x526>
     c0c:	20 68       	ori	r18, 0x80	; 128
	scratchpad[8]=0;
	error=ds1820_reset(used_pin);									//1. Reset
	if (error==0){
	    ds1820_wr_byte(0xCC,used_pin);  							//2. skip ROM
	    ds1820_wr_byte(0x44,used_pin);  							//3. ask for temperature conversion
	    while (ds1820_re_byte(used_pin)==0xFF && j<1000){			//4. wait until conversion is finished 
     c0e:	2f 3f       	cpi	r18, 0xFF	; 255
     c10:	09 f0       	breq	.+2      	; 0xc14 <ds1820_read_temp+0x75e>
     c12:	81 ce       	rjmp	.-766    	; 0x916 <ds1820_read_temp+0x460>
     c14:	41 50       	subi	r20, 0x01	; 1
     c16:	50 40       	sbci	r21, 0x00	; 0
     c18:	09 f4       	brne	.+2      	; 0xc1c <ds1820_read_temp+0x766>
     c1a:	7d ce       	rjmp	.-774    	; 0x916 <ds1820_read_temp+0x460>
     c1c:	00 00       	nop
     c1e:	6a cd       	rjmp	.-1324   	; 0x6f4 <ds1820_read_temp+0x23e>

	for (i=0; i < 8; i++) {
		rebit=ds1820_re_bit(used_pin);
		//_delay_us(2);									//be on the save side
		if (rebit==1){
			rebyte|=(1<<i);
     c20:	20 61       	ori	r18, 0x10	; 16
     c22:	13 ce       	rjmp	.-986    	; 0x84a <ds1820_read_temp+0x394>
     c24:	28 60       	ori	r18, 0x08	; 8
     c26:	ef cd       	rjmp	.-1058   	; 0x806 <ds1820_read_temp+0x350>
     c28:	24 60       	ori	r18, 0x04	; 4
     c2a:	cb cd       	rjmp	.-1130   	; 0x7c2 <ds1820_read_temp+0x30c>
     c2c:	22 60       	ori	r18, 0x02	; 2
     c2e:	a7 cd       	rjmp	.-1202   	; 0x77e <ds1820_read_temp+0x2c8>
     c30:	20 64       	ori	r18, 0x40	; 64
     c32:	4f ce       	rjmp	.-866    	; 0x8d2 <ds1820_read_temp+0x41c>
     c34:	20 62       	ori	r18, 0x20	; 32
     c36:	2b ce       	rjmp	.-938    	; 0x88e <ds1820_read_temp+0x3d8>
     c38:	20 68       	ori	r18, 0x80	; 128
     c3a:	9c cf       	rjmp	.-200    	; 0xb74 <ds1820_read_temp+0x6be>
     c3c:	20 64       	ori	r18, 0x40	; 64
     c3e:	78 cf       	rjmp	.-272    	; 0xb30 <ds1820_read_temp+0x67a>
     c40:	20 62       	ori	r18, 0x20	; 32
     c42:	54 cf       	rjmp	.-344    	; 0xaec <ds1820_read_temp+0x636>
     c44:	20 61       	ori	r18, 0x10	; 16
     c46:	30 cf       	rjmp	.-416    	; 0xaa8 <ds1820_read_temp+0x5f2>
     c48:	28 60       	ori	r18, 0x08	; 8
     c4a:	0c cf       	rjmp	.-488    	; 0xa64 <ds1820_read_temp+0x5ae>
     c4c:	24 60       	ori	r18, 0x04	; 4
     c4e:	e8 ce       	rjmp	.-560    	; 0xa20 <ds1820_read_temp+0x56a>

00000c50 <ds1820_init>:
	return temp;
}
//-----------------------------------------
// Initialize DS18S20
//-----------------------------------------
void  ds1820_init(uint8_t used_pin)	 {
     c50:	ef 92       	push	r14
     c52:	ff 92       	push	r15
     c54:	1f 93       	push	r17
     c56:	cf 93       	push	r28
     c58:	df 93       	push	r29
     c5a:	18 2f       	mov	r17, r24
//----------------------------------------
// Reset DS18S20
//----------------------------------------
uint8_t ds1820_reset(uint8_t used_pin) {
	uint8_t err=100;
	DS1820_DDR |= 1<<used_pin;						// define as ouput
     c5c:	81 b1       	in	r24, 0x01	; 1
     c5e:	21 e0       	ldi	r18, 0x01	; 1
     c60:	e2 2e       	mov	r14, r18
     c62:	f1 2c       	mov	r15, r1
     c64:	01 2e       	mov	r0, r17
     c66:	02 c0       	rjmp	.+4      	; 0xc6c <ds1820_init+0x1c>
     c68:	ee 0c       	add	r14, r14
     c6a:	ff 1c       	adc	r15, r15
     c6c:	0a 94       	dec	r0
     c6e:	e2 f7       	brpl	.-8      	; 0xc68 <ds1820_init+0x18>
     c70:	de 2d       	mov	r29, r14
     c72:	8e 29       	or	r24, r14
     c74:	81 b9       	out	0x01, r24	; 1
	DS1820_PORT &= ~(1<<used_pin);					//Pull low
     c76:	82 b1       	in	r24, 0x02	; 2
     c78:	ce 2d       	mov	r28, r14
     c7a:	c0 95       	com	r28
     c7c:	8c 23       	and	r24, r28
     c7e:	82 b9       	out	0x02, r24	; 2
     c80:	80 ea       	ldi	r24, 0xA0	; 160
     c82:	8a 95       	dec	r24
     c84:	f1 f7       	brne	.-4      	; 0xc82 <ds1820_init+0x32>
	_delay_us(480);				;					// 480 us
	DS1820_DDR &= ~(1<<used_pin);						// define as input
     c86:	81 b1       	in	r24, 0x01	; 1
     c88:	8c 23       	and	r24, r28
     c8a:	81 b9       	out	0x01, r24	; 1
	DS1820_PORT |= 1<<used_pin;						//Pullup on
     c8c:	82 b1       	in	r24, 0x02	; 2
     c8e:	8e 29       	or	r24, r14
     c90:	82 b9       	out	0x02, r24	; 2
     c92:	96 e1       	ldi	r25, 0x16	; 22
     c94:	9a 95       	dec	r25
     c96:	f1 f7       	brne	.-4      	; 0xc94 <ds1820_init+0x44>
	_delay_us(66);										// 66 us
	err = (DS1820_PIN & (1<<used_pin)) >> used_pin;	// no presence detect --> err=1 otherwise err=0
     c98:	20 b1       	in	r18, 0x00	; 0
     c9a:	80 e5       	ldi	r24, 0x50	; 80
     c9c:	8a 95       	dec	r24
     c9e:	f1 f7       	brne	.-4      	; 0xc9c <ds1820_init+0x4c>
	_delay_us(240);									// 240 us
	if((DS1820_PIN & (1<<used_pin)) == 0 ){			// short circuit --> err=2
     ca0:	80 b1       	in	r24, 0x00	; 0
     ca2:	90 e0       	ldi	r25, 0x00	; 0
     ca4:	01 2e       	mov	r0, r17
     ca6:	02 c0       	rjmp	.+4      	; 0xcac <ds1820_init+0x5c>
     ca8:	95 95       	asr	r25
     caa:	87 95       	ror	r24
     cac:	0a 94       	dec	r0
     cae:	e2 f7       	brpl	.-8      	; 0xca8 <ds1820_init+0x58>
     cb0:	80 fd       	sbrc	r24, 0
     cb2:	06 c0       	rjmp	.+12     	; 0xcc0 <ds1820_init+0x70>
	    ds1820_wr_byte(0xCC,used_pin);  							//6. skip ROM
	    ds1820_wr_byte(0xBE,used_pin);  							//7. Read entire scratchpad 9 bytes
		}
    
	   
}
     cb4:	df 91       	pop	r29
     cb6:	cf 91       	pop	r28
     cb8:	1f 91       	pop	r17
     cba:	ff 90       	pop	r15
     cbc:	ef 90       	pop	r14
     cbe:	08 95       	ret
	DS1820_PORT &= ~(1<<used_pin);					//Pull low
	_delay_us(480);				;					// 480 us
	DS1820_DDR &= ~(1<<used_pin);						// define as input
	DS1820_PORT |= 1<<used_pin;						//Pullup on
	_delay_us(66);										// 66 us
	err = (DS1820_PIN & (1<<used_pin)) >> used_pin;	// no presence detect --> err=1 otherwise err=0
     cc0:	82 2f       	mov	r24, r18
     cc2:	90 e0       	ldi	r25, 0x00	; 0
     cc4:	8e 21       	and	r24, r14
     cc6:	9f 21       	and	r25, r15
     cc8:	01 2e       	mov	r0, r17
     cca:	02 c0       	rjmp	.+4      	; 0xcd0 <ds1820_init+0x80>
     ccc:	95 95       	asr	r25
     cce:	87 95       	ror	r24
     cd0:	0a 94       	dec	r0
     cd2:	e2 f7       	brpl	.-8      	; 0xccc <ds1820_init+0x7c>
//-----------------------------------------
void  ds1820_init(uint8_t used_pin)	 {
	uint8_t error;
	uint16_t i =0;
	error=ds1820_reset(used_pin);									//1. Reset
	if (error==0) {
     cd4:	88 23       	and	r24, r24
     cd6:	71 f7       	brne	.-36     	; 0xcb4 <ds1820_init+0x64>
// Write 1 byte to DS18S20
//-----------------------------------------
void ds1820_wr_byte(uint8_t wrbyte,uint8_t used_pin) {
	uint8_t i;
	for (i=0; i < 8; i++) { // writes byte, one bit at a time
		ds1820_wr_bit((wrbyte & 0b00000001),used_pin);
     cd8:	61 2f       	mov	r22, r17
     cda:	0e 94 94 00 	call	0x128	; 0x128 <ds1820_wr_bit>
     cde:	80 e0       	ldi	r24, 0x00	; 0
     ce0:	61 2f       	mov	r22, r17
     ce2:	0e 94 94 00 	call	0x128	; 0x128 <ds1820_wr_bit>
     ce6:	81 e0       	ldi	r24, 0x01	; 1
     ce8:	61 2f       	mov	r22, r17
     cea:	0e 94 94 00 	call	0x128	; 0x128 <ds1820_wr_bit>
     cee:	81 e0       	ldi	r24, 0x01	; 1
     cf0:	61 2f       	mov	r22, r17
     cf2:	0e 94 94 00 	call	0x128	; 0x128 <ds1820_wr_bit>
     cf6:	80 e0       	ldi	r24, 0x00	; 0
     cf8:	61 2f       	mov	r22, r17
     cfa:	0e 94 94 00 	call	0x128	; 0x128 <ds1820_wr_bit>
     cfe:	80 e0       	ldi	r24, 0x00	; 0
     d00:	61 2f       	mov	r22, r17
     d02:	0e 94 94 00 	call	0x128	; 0x128 <ds1820_wr_bit>
     d06:	81 e0       	ldi	r24, 0x01	; 1
     d08:	61 2f       	mov	r22, r17
     d0a:	0e 94 94 00 	call	0x128	; 0x128 <ds1820_wr_bit>
     d0e:	81 e0       	ldi	r24, 0x01	; 1
     d10:	61 2f       	mov	r22, r17
     d12:	0e 94 94 00 	call	0x128	; 0x128 <ds1820_wr_bit>
     d16:	00 c0       	rjmp	.+0      	; 0xd18 <ds1820_init+0xc8>
     d18:	00 c0       	rjmp	.+0      	; 0xd1a <ds1820_init+0xca>
     d1a:	00 00       	nop
     d1c:	80 e0       	ldi	r24, 0x00	; 0
     d1e:	61 2f       	mov	r22, r17
     d20:	0e 94 94 00 	call	0x128	; 0x128 <ds1820_wr_bit>
     d24:	80 e0       	ldi	r24, 0x00	; 0
     d26:	61 2f       	mov	r22, r17
     d28:	0e 94 94 00 	call	0x128	; 0x128 <ds1820_wr_bit>
     d2c:	81 e0       	ldi	r24, 0x01	; 1
     d2e:	61 2f       	mov	r22, r17
     d30:	0e 94 94 00 	call	0x128	; 0x128 <ds1820_wr_bit>
     d34:	80 e0       	ldi	r24, 0x00	; 0
     d36:	61 2f       	mov	r22, r17
     d38:	0e 94 94 00 	call	0x128	; 0x128 <ds1820_wr_bit>
     d3c:	80 e0       	ldi	r24, 0x00	; 0
     d3e:	61 2f       	mov	r22, r17
     d40:	0e 94 94 00 	call	0x128	; 0x128 <ds1820_wr_bit>
     d44:	80 e0       	ldi	r24, 0x00	; 0
     d46:	61 2f       	mov	r22, r17
     d48:	0e 94 94 00 	call	0x128	; 0x128 <ds1820_wr_bit>
     d4c:	81 e0       	ldi	r24, 0x01	; 1
     d4e:	61 2f       	mov	r22, r17
     d50:	0e 94 94 00 	call	0x128	; 0x128 <ds1820_wr_bit>
     d54:	80 e0       	ldi	r24, 0x00	; 0
     d56:	61 2f       	mov	r22, r17
     d58:	0e 94 94 00 	call	0x128	; 0x128 <ds1820_wr_bit>
     d5c:	00 c0       	rjmp	.+0      	; 0xd5e <ds1820_init+0x10e>
     d5e:	00 c0       	rjmp	.+0      	; 0xd60 <ds1820_init+0x110>
     d60:	00 00       	nop
     d62:	49 ee       	ldi	r20, 0xE9	; 233
     d64:	53 e0       	ldi	r21, 0x03	; 3
//-----------------------------------------
// Read one bit from DS18S20
//-----------------------------------------
uint8_t ds1820_re_bit(uint8_t used_pin) {
	uint8_t rebit;
	DS1820_DDR |= 1<<used_pin;							// define as ouput
     d66:	81 b1       	in	r24, 0x01	; 1
     d68:	8d 2b       	or	r24, r29
     d6a:	81 b9       	out	0x01, r24	; 1
  	DS1820_PORT &= ~(1<<used_pin);						//Pull low
     d6c:	82 b1       	in	r24, 0x02	; 2
     d6e:	8c 23       	and	r24, r28
     d70:	82 b9       	out	0x02, r24	; 2
     d72:	00 00       	nop
	_delay_us(1);
	DS1820_DDR &= ~(1<<used_pin);						// define as input
     d74:	81 b1       	in	r24, 0x01	; 1
     d76:	8c 23       	and	r24, r28
     d78:	81 b9       	out	0x01, r24	; 1
	DS1820_PORT |= 1<<used_pin;							//Pullup on
     d7a:	82 b1       	in	r24, 0x02	; 2
     d7c:	8d 2b       	or	r24, r29
     d7e:	82 b9       	out	0x02, r24	; 2
     d80:	93 e0       	ldi	r25, 0x03	; 3
     d82:	9a 95       	dec	r25
     d84:	f1 f7       	brne	.-4      	; 0xd82 <ds1820_init+0x132>
     d86:	00 00       	nop
	_delay_us(10);
	rebit = (DS1820_PIN & (1<<used_pin)) >> used_pin; 	//Read bit
     d88:	80 b1       	in	r24, 0x00	; 0
     d8a:	90 e1       	ldi	r25, 0x10	; 16
     d8c:	9a 95       	dec	r25
     d8e:	f1 f7       	brne	.-4      	; 0xd8c <ds1820_init+0x13c>
     d90:	00 c0       	rjmp	.+0      	; 0xd92 <ds1820_init+0x142>
     d92:	90 e0       	ldi	r25, 0x00	; 0
     d94:	8e 21       	and	r24, r14
     d96:	9f 21       	and	r25, r15
     d98:	01 2e       	mov	r0, r17
     d9a:	02 c0       	rjmp	.+4      	; 0xda0 <ds1820_init+0x150>
     d9c:	95 95       	asr	r25
     d9e:	87 95       	ror	r24
     da0:	0a 94       	dec	r0
     da2:	e2 f7       	brpl	.-8      	; 0xd9c <ds1820_init+0x14c>
}
//-----------------------------------------
// Read 1 byte from DS18S20
//-----------------------------------------
uint8_t ds1820_re_byte(uint8_t used_pin) {
	uint8_t rebyte =0x00;
     da4:	21 e0       	ldi	r18, 0x01	; 1
     da6:	81 30       	cpi	r24, 0x01	; 1
     da8:	09 f0       	breq	.+2      	; 0xdac <ds1820_init+0x15c>
     daa:	20 e0       	ldi	r18, 0x00	; 0
//-----------------------------------------
// Read one bit from DS18S20
//-----------------------------------------
uint8_t ds1820_re_bit(uint8_t used_pin) {
	uint8_t rebit;
	DS1820_DDR |= 1<<used_pin;							// define as ouput
     dac:	81 b1       	in	r24, 0x01	; 1
     dae:	8d 2b       	or	r24, r29
     db0:	81 b9       	out	0x01, r24	; 1
  	DS1820_PORT &= ~(1<<used_pin);						//Pull low
     db2:	82 b1       	in	r24, 0x02	; 2
     db4:	8c 23       	and	r24, r28
     db6:	82 b9       	out	0x02, r24	; 2
     db8:	00 00       	nop
	_delay_us(1);
	DS1820_DDR &= ~(1<<used_pin);						// define as input
     dba:	81 b1       	in	r24, 0x01	; 1
     dbc:	8c 23       	and	r24, r28
     dbe:	81 b9       	out	0x01, r24	; 1
	DS1820_PORT |= 1<<used_pin;							//Pullup on
     dc0:	82 b1       	in	r24, 0x02	; 2
     dc2:	8d 2b       	or	r24, r29
     dc4:	82 b9       	out	0x02, r24	; 2
     dc6:	83 e0       	ldi	r24, 0x03	; 3
     dc8:	8a 95       	dec	r24
     dca:	f1 f7       	brne	.-4      	; 0xdc8 <ds1820_init+0x178>
     dcc:	00 00       	nop
	_delay_us(10);
	rebit = (DS1820_PIN & (1<<used_pin)) >> used_pin; 	//Read bit
     dce:	80 b1       	in	r24, 0x00	; 0
     dd0:	90 e1       	ldi	r25, 0x10	; 16
     dd2:	9a 95       	dec	r25
     dd4:	f1 f7       	brne	.-4      	; 0xdd2 <ds1820_init+0x182>
     dd6:	00 c0       	rjmp	.+0      	; 0xdd8 <ds1820_init+0x188>
     dd8:	90 e0       	ldi	r25, 0x00	; 0
     dda:	8e 21       	and	r24, r14
     ddc:	9f 21       	and	r25, r15
     dde:	01 2e       	mov	r0, r17
     de0:	02 c0       	rjmp	.+4      	; 0xde6 <ds1820_init+0x196>
     de2:	95 95       	asr	r25
     de4:	87 95       	ror	r24
     de6:	0a 94       	dec	r0
     de8:	e2 f7       	brpl	.-8      	; 0xde2 <ds1820_init+0x192>
	uint8_t i;

	for (i=0; i < 8; i++) {
		rebit=ds1820_re_bit(used_pin);
		//_delay_us(2);									//be on the save side
		if (rebit==1){
     dea:	81 30       	cpi	r24, 0x01	; 1
     dec:	09 f4       	brne	.+2      	; 0xdf0 <ds1820_init+0x1a0>
     dee:	2f c1       	rjmp	.+606    	; 0x104e <ds1820_init+0x3fe>
//-----------------------------------------
// Read one bit from DS18S20
//-----------------------------------------
uint8_t ds1820_re_bit(uint8_t used_pin) {
	uint8_t rebit;
	DS1820_DDR |= 1<<used_pin;							// define as ouput
     df0:	81 b1       	in	r24, 0x01	; 1
     df2:	8d 2b       	or	r24, r29
     df4:	81 b9       	out	0x01, r24	; 1
  	DS1820_PORT &= ~(1<<used_pin);						//Pull low
     df6:	82 b1       	in	r24, 0x02	; 2
     df8:	8c 23       	and	r24, r28
     dfa:	82 b9       	out	0x02, r24	; 2
     dfc:	00 00       	nop
	_delay_us(1);
	DS1820_DDR &= ~(1<<used_pin);						// define as input
     dfe:	81 b1       	in	r24, 0x01	; 1
     e00:	8c 23       	and	r24, r28
     e02:	81 b9       	out	0x01, r24	; 1
	DS1820_PORT |= 1<<used_pin;							//Pullup on
     e04:	82 b1       	in	r24, 0x02	; 2
     e06:	8d 2b       	or	r24, r29
     e08:	82 b9       	out	0x02, r24	; 2
     e0a:	83 e0       	ldi	r24, 0x03	; 3
     e0c:	8a 95       	dec	r24
     e0e:	f1 f7       	brne	.-4      	; 0xe0c <ds1820_init+0x1bc>
     e10:	00 00       	nop
	_delay_us(10);
	rebit = (DS1820_PIN & (1<<used_pin)) >> used_pin; 	//Read bit
     e12:	80 b1       	in	r24, 0x00	; 0
     e14:	90 e1       	ldi	r25, 0x10	; 16
     e16:	9a 95       	dec	r25
     e18:	f1 f7       	brne	.-4      	; 0xe16 <ds1820_init+0x1c6>
     e1a:	00 c0       	rjmp	.+0      	; 0xe1c <ds1820_init+0x1cc>
     e1c:	90 e0       	ldi	r25, 0x00	; 0
     e1e:	8e 21       	and	r24, r14
     e20:	9f 21       	and	r25, r15
     e22:	01 2e       	mov	r0, r17
     e24:	02 c0       	rjmp	.+4      	; 0xe2a <ds1820_init+0x1da>
     e26:	95 95       	asr	r25
     e28:	87 95       	ror	r24
     e2a:	0a 94       	dec	r0
     e2c:	e2 f7       	brpl	.-8      	; 0xe26 <ds1820_init+0x1d6>
	uint8_t i;

	for (i=0; i < 8; i++) {
		rebit=ds1820_re_bit(used_pin);
		//_delay_us(2);									//be on the save side
		if (rebit==1){
     e2e:	81 30       	cpi	r24, 0x01	; 1
     e30:	09 f4       	brne	.+2      	; 0xe34 <ds1820_init+0x1e4>
     e32:	21 c1       	rjmp	.+578    	; 0x1076 <ds1820_init+0x426>
//-----------------------------------------
// Read one bit from DS18S20
//-----------------------------------------
uint8_t ds1820_re_bit(uint8_t used_pin) {
	uint8_t rebit;
	DS1820_DDR |= 1<<used_pin;							// define as ouput
     e34:	81 b1       	in	r24, 0x01	; 1
     e36:	8d 2b       	or	r24, r29
     e38:	81 b9       	out	0x01, r24	; 1
  	DS1820_PORT &= ~(1<<used_pin);						//Pull low
     e3a:	82 b1       	in	r24, 0x02	; 2
     e3c:	8c 23       	and	r24, r28
     e3e:	82 b9       	out	0x02, r24	; 2
     e40:	00 00       	nop
	_delay_us(1);
	DS1820_DDR &= ~(1<<used_pin);						// define as input
     e42:	81 b1       	in	r24, 0x01	; 1
     e44:	8c 23       	and	r24, r28
     e46:	81 b9       	out	0x01, r24	; 1
	DS1820_PORT |= 1<<used_pin;							//Pullup on
     e48:	82 b1       	in	r24, 0x02	; 2
     e4a:	8d 2b       	or	r24, r29
     e4c:	82 b9       	out	0x02, r24	; 2
     e4e:	83 e0       	ldi	r24, 0x03	; 3
     e50:	8a 95       	dec	r24
     e52:	f1 f7       	brne	.-4      	; 0xe50 <ds1820_init+0x200>
     e54:	00 00       	nop
	_delay_us(10);
	rebit = (DS1820_PIN & (1<<used_pin)) >> used_pin; 	//Read bit
     e56:	80 b1       	in	r24, 0x00	; 0
     e58:	90 e1       	ldi	r25, 0x10	; 16
     e5a:	9a 95       	dec	r25
     e5c:	f1 f7       	brne	.-4      	; 0xe5a <ds1820_init+0x20a>
     e5e:	00 c0       	rjmp	.+0      	; 0xe60 <ds1820_init+0x210>
     e60:	90 e0       	ldi	r25, 0x00	; 0
     e62:	8e 21       	and	r24, r14
     e64:	9f 21       	and	r25, r15
     e66:	01 2e       	mov	r0, r17
     e68:	02 c0       	rjmp	.+4      	; 0xe6e <ds1820_init+0x21e>
     e6a:	95 95       	asr	r25
     e6c:	87 95       	ror	r24
     e6e:	0a 94       	dec	r0
     e70:	e2 f7       	brpl	.-8      	; 0xe6a <ds1820_init+0x21a>
	uint8_t i;

	for (i=0; i < 8; i++) {
		rebit=ds1820_re_bit(used_pin);
		//_delay_us(2);									//be on the save side
		if (rebit==1){
     e72:	81 30       	cpi	r24, 0x01	; 1
     e74:	09 f4       	brne	.+2      	; 0xe78 <ds1820_init+0x228>
     e76:	fd c0       	rjmp	.+506    	; 0x1072 <ds1820_init+0x422>
//-----------------------------------------
// Read one bit from DS18S20
//-----------------------------------------
uint8_t ds1820_re_bit(uint8_t used_pin) {
	uint8_t rebit;
	DS1820_DDR |= 1<<used_pin;							// define as ouput
     e78:	81 b1       	in	r24, 0x01	; 1
     e7a:	8d 2b       	or	r24, r29
     e7c:	81 b9       	out	0x01, r24	; 1
  	DS1820_PORT &= ~(1<<used_pin);						//Pull low
     e7e:	82 b1       	in	r24, 0x02	; 2
     e80:	8c 23       	and	r24, r28
     e82:	82 b9       	out	0x02, r24	; 2
     e84:	00 00       	nop
	_delay_us(1);
	DS1820_DDR &= ~(1<<used_pin);						// define as input
     e86:	81 b1       	in	r24, 0x01	; 1
     e88:	8c 23       	and	r24, r28
     e8a:	81 b9       	out	0x01, r24	; 1
	DS1820_PORT |= 1<<used_pin;							//Pullup on
     e8c:	82 b1       	in	r24, 0x02	; 2
     e8e:	8d 2b       	or	r24, r29
     e90:	82 b9       	out	0x02, r24	; 2
     e92:	83 e0       	ldi	r24, 0x03	; 3
     e94:	8a 95       	dec	r24
     e96:	f1 f7       	brne	.-4      	; 0xe94 <ds1820_init+0x244>
     e98:	00 00       	nop
	_delay_us(10);
	rebit = (DS1820_PIN & (1<<used_pin)) >> used_pin; 	//Read bit
     e9a:	80 b1       	in	r24, 0x00	; 0
     e9c:	90 e1       	ldi	r25, 0x10	; 16
     e9e:	9a 95       	dec	r25
     ea0:	f1 f7       	brne	.-4      	; 0xe9e <ds1820_init+0x24e>
     ea2:	00 c0       	rjmp	.+0      	; 0xea4 <ds1820_init+0x254>
     ea4:	90 e0       	ldi	r25, 0x00	; 0
     ea6:	8e 21       	and	r24, r14
     ea8:	9f 21       	and	r25, r15
     eaa:	01 2e       	mov	r0, r17
     eac:	02 c0       	rjmp	.+4      	; 0xeb2 <ds1820_init+0x262>
     eae:	95 95       	asr	r25
     eb0:	87 95       	ror	r24
     eb2:	0a 94       	dec	r0
     eb4:	e2 f7       	brpl	.-8      	; 0xeae <ds1820_init+0x25e>
	uint8_t i;

	for (i=0; i < 8; i++) {
		rebit=ds1820_re_bit(used_pin);
		//_delay_us(2);									//be on the save side
		if (rebit==1){
     eb6:	81 30       	cpi	r24, 0x01	; 1
     eb8:	09 f4       	brne	.+2      	; 0xebc <ds1820_init+0x26c>
     eba:	d9 c0       	rjmp	.+434    	; 0x106e <ds1820_init+0x41e>
//-----------------------------------------
// Read one bit from DS18S20
//-----------------------------------------
uint8_t ds1820_re_bit(uint8_t used_pin) {
	uint8_t rebit;
	DS1820_DDR |= 1<<used_pin;							// define as ouput
     ebc:	81 b1       	in	r24, 0x01	; 1
     ebe:	8d 2b       	or	r24, r29
     ec0:	81 b9       	out	0x01, r24	; 1
  	DS1820_PORT &= ~(1<<used_pin);						//Pull low
     ec2:	82 b1       	in	r24, 0x02	; 2
     ec4:	8c 23       	and	r24, r28
     ec6:	82 b9       	out	0x02, r24	; 2
     ec8:	00 00       	nop
	_delay_us(1);
	DS1820_DDR &= ~(1<<used_pin);						// define as input
     eca:	81 b1       	in	r24, 0x01	; 1
     ecc:	8c 23       	and	r24, r28
     ece:	81 b9       	out	0x01, r24	; 1
	DS1820_PORT |= 1<<used_pin;							//Pullup on
     ed0:	82 b1       	in	r24, 0x02	; 2
     ed2:	8d 2b       	or	r24, r29
     ed4:	82 b9       	out	0x02, r24	; 2
     ed6:	83 e0       	ldi	r24, 0x03	; 3
     ed8:	8a 95       	dec	r24
     eda:	f1 f7       	brne	.-4      	; 0xed8 <ds1820_init+0x288>
     edc:	00 00       	nop
	_delay_us(10);
	rebit = (DS1820_PIN & (1<<used_pin)) >> used_pin; 	//Read bit
     ede:	80 b1       	in	r24, 0x00	; 0
     ee0:	90 e1       	ldi	r25, 0x10	; 16
     ee2:	9a 95       	dec	r25
     ee4:	f1 f7       	brne	.-4      	; 0xee2 <ds1820_init+0x292>
     ee6:	00 c0       	rjmp	.+0      	; 0xee8 <ds1820_init+0x298>
     ee8:	90 e0       	ldi	r25, 0x00	; 0
     eea:	8e 21       	and	r24, r14
     eec:	9f 21       	and	r25, r15
     eee:	01 2e       	mov	r0, r17
     ef0:	02 c0       	rjmp	.+4      	; 0xef6 <ds1820_init+0x2a6>
     ef2:	95 95       	asr	r25
     ef4:	87 95       	ror	r24
     ef6:	0a 94       	dec	r0
     ef8:	e2 f7       	brpl	.-8      	; 0xef2 <ds1820_init+0x2a2>
	uint8_t i;

	for (i=0; i < 8; i++) {
		rebit=ds1820_re_bit(used_pin);
		//_delay_us(2);									//be on the save side
		if (rebit==1){
     efa:	81 30       	cpi	r24, 0x01	; 1
     efc:	09 f4       	brne	.+2      	; 0xf00 <ds1820_init+0x2b0>
     efe:	b5 c0       	rjmp	.+362    	; 0x106a <ds1820_init+0x41a>
//-----------------------------------------
// Read one bit from DS18S20
//-----------------------------------------
uint8_t ds1820_re_bit(uint8_t used_pin) {
	uint8_t rebit;
	DS1820_DDR |= 1<<used_pin;							// define as ouput
     f00:	81 b1       	in	r24, 0x01	; 1
     f02:	8d 2b       	or	r24, r29
     f04:	81 b9       	out	0x01, r24	; 1
  	DS1820_PORT &= ~(1<<used_pin);						//Pull low
     f06:	82 b1       	in	r24, 0x02	; 2
     f08:	8c 23       	and	r24, r28
     f0a:	82 b9       	out	0x02, r24	; 2
     f0c:	00 00       	nop
	_delay_us(1);
	DS1820_DDR &= ~(1<<used_pin);						// define as input
     f0e:	81 b1       	in	r24, 0x01	; 1
     f10:	8c 23       	and	r24, r28
     f12:	81 b9       	out	0x01, r24	; 1
	DS1820_PORT |= 1<<used_pin;							//Pullup on
     f14:	82 b1       	in	r24, 0x02	; 2
     f16:	8d 2b       	or	r24, r29
     f18:	82 b9       	out	0x02, r24	; 2
     f1a:	83 e0       	ldi	r24, 0x03	; 3
     f1c:	8a 95       	dec	r24
     f1e:	f1 f7       	brne	.-4      	; 0xf1c <ds1820_init+0x2cc>
     f20:	00 00       	nop
	_delay_us(10);
	rebit = (DS1820_PIN & (1<<used_pin)) >> used_pin; 	//Read bit
     f22:	80 b1       	in	r24, 0x00	; 0
     f24:	90 e1       	ldi	r25, 0x10	; 16
     f26:	9a 95       	dec	r25
     f28:	f1 f7       	brne	.-4      	; 0xf26 <ds1820_init+0x2d6>
     f2a:	00 c0       	rjmp	.+0      	; 0xf2c <ds1820_init+0x2dc>
     f2c:	90 e0       	ldi	r25, 0x00	; 0
     f2e:	8e 21       	and	r24, r14
     f30:	9f 21       	and	r25, r15
     f32:	01 2e       	mov	r0, r17
     f34:	02 c0       	rjmp	.+4      	; 0xf3a <ds1820_init+0x2ea>
     f36:	95 95       	asr	r25
     f38:	87 95       	ror	r24
     f3a:	0a 94       	dec	r0
     f3c:	e2 f7       	brpl	.-8      	; 0xf36 <ds1820_init+0x2e6>
	uint8_t i;

	for (i=0; i < 8; i++) {
		rebit=ds1820_re_bit(used_pin);
		//_delay_us(2);									//be on the save side
		if (rebit==1){
     f3e:	81 30       	cpi	r24, 0x01	; 1
     f40:	09 f4       	brne	.+2      	; 0xf44 <ds1820_init+0x2f4>
     f42:	91 c0       	rjmp	.+290    	; 0x1066 <ds1820_init+0x416>
//-----------------------------------------
// Read one bit from DS18S20
//-----------------------------------------
uint8_t ds1820_re_bit(uint8_t used_pin) {
	uint8_t rebit;
	DS1820_DDR |= 1<<used_pin;							// define as ouput
     f44:	81 b1       	in	r24, 0x01	; 1
     f46:	8d 2b       	or	r24, r29
     f48:	81 b9       	out	0x01, r24	; 1
  	DS1820_PORT &= ~(1<<used_pin);						//Pull low
     f4a:	82 b1       	in	r24, 0x02	; 2
     f4c:	8c 23       	and	r24, r28
     f4e:	82 b9       	out	0x02, r24	; 2
     f50:	00 00       	nop
	_delay_us(1);
	DS1820_DDR &= ~(1<<used_pin);						// define as input
     f52:	81 b1       	in	r24, 0x01	; 1
     f54:	8c 23       	and	r24, r28
     f56:	81 b9       	out	0x01, r24	; 1
	DS1820_PORT |= 1<<used_pin;							//Pullup on
     f58:	82 b1       	in	r24, 0x02	; 2
     f5a:	8d 2b       	or	r24, r29
     f5c:	82 b9       	out	0x02, r24	; 2
     f5e:	83 e0       	ldi	r24, 0x03	; 3
     f60:	8a 95       	dec	r24
     f62:	f1 f7       	brne	.-4      	; 0xf60 <ds1820_init+0x310>
     f64:	00 00       	nop
	_delay_us(10);
	rebit = (DS1820_PIN & (1<<used_pin)) >> used_pin; 	//Read bit
     f66:	80 b1       	in	r24, 0x00	; 0
     f68:	90 e1       	ldi	r25, 0x10	; 16
     f6a:	9a 95       	dec	r25
     f6c:	f1 f7       	brne	.-4      	; 0xf6a <ds1820_init+0x31a>
     f6e:	00 c0       	rjmp	.+0      	; 0xf70 <ds1820_init+0x320>
     f70:	90 e0       	ldi	r25, 0x00	; 0
     f72:	8e 21       	and	r24, r14
     f74:	9f 21       	and	r25, r15
     f76:	01 2e       	mov	r0, r17
     f78:	02 c0       	rjmp	.+4      	; 0xf7e <ds1820_init+0x32e>
     f7a:	95 95       	asr	r25
     f7c:	87 95       	ror	r24
     f7e:	0a 94       	dec	r0
     f80:	e2 f7       	brpl	.-8      	; 0xf7a <ds1820_init+0x32a>
	uint8_t i;

	for (i=0; i < 8; i++) {
		rebit=ds1820_re_bit(used_pin);
		//_delay_us(2);									//be on the save side
		if (rebit==1){
     f82:	81 30       	cpi	r24, 0x01	; 1
     f84:	09 f4       	brne	.+2      	; 0xf88 <ds1820_init+0x338>
     f86:	65 c0       	rjmp	.+202    	; 0x1052 <ds1820_init+0x402>
//----------------------------------------
// Reset DS18S20
//----------------------------------------
uint8_t ds1820_reset(uint8_t used_pin) {
	uint8_t err=100;
	DS1820_DDR |= 1<<used_pin;						// define as ouput
     f88:	81 b1       	in	r24, 0x01	; 1
     f8a:	8d 2b       	or	r24, r29
     f8c:	81 b9       	out	0x01, r24	; 1
	DS1820_PORT &= ~(1<<used_pin);					//Pull low
     f8e:	82 b1       	in	r24, 0x02	; 2
     f90:	8c 23       	and	r24, r28
     f92:	82 b9       	out	0x02, r24	; 2
     f94:	80 ea       	ldi	r24, 0xA0	; 160
     f96:	8a 95       	dec	r24
     f98:	f1 f7       	brne	.-4      	; 0xf96 <ds1820_init+0x346>
	_delay_us(480);				;					// 480 us
	DS1820_DDR &= ~(1<<used_pin);						// define as input
     f9a:	81 b1       	in	r24, 0x01	; 1
     f9c:	8c 23       	and	r24, r28
     f9e:	81 b9       	out	0x01, r24	; 1
	DS1820_PORT |= 1<<used_pin;						//Pullup on
     fa0:	82 b1       	in	r24, 0x02	; 2
     fa2:	8d 2b       	or	r24, r29
     fa4:	82 b9       	out	0x02, r24	; 2
     fa6:	96 e1       	ldi	r25, 0x16	; 22
     fa8:	9a 95       	dec	r25
     faa:	f1 f7       	brne	.-4      	; 0xfa8 <ds1820_init+0x358>
	_delay_us(66);										// 66 us
	err = (DS1820_PIN & (1<<used_pin)) >> used_pin;	// no presence detect --> err=1 otherwise err=0
     fac:	80 b1       	in	r24, 0x00	; 0
     fae:	80 e5       	ldi	r24, 0x50	; 80
     fb0:	8a 95       	dec	r24
     fb2:	f1 f7       	brne	.-4      	; 0xfb0 <ds1820_init+0x360>
	_delay_us(240);									// 240 us
	if((DS1820_PIN & (1<<used_pin)) == 0 ){			// short circuit --> err=2
     fb4:	80 b1       	in	r24, 0x00	; 0
// Write 1 byte to DS18S20
//-----------------------------------------
void ds1820_wr_byte(uint8_t wrbyte,uint8_t used_pin) {
	uint8_t i;
	for (i=0; i < 8; i++) { // writes byte, one bit at a time
		ds1820_wr_bit((wrbyte & 0b00000001),used_pin);
     fb6:	80 e0       	ldi	r24, 0x00	; 0
     fb8:	61 2f       	mov	r22, r17
     fba:	0e 94 94 00 	call	0x128	; 0x128 <ds1820_wr_bit>
     fbe:	80 e0       	ldi	r24, 0x00	; 0
     fc0:	61 2f       	mov	r22, r17
     fc2:	0e 94 94 00 	call	0x128	; 0x128 <ds1820_wr_bit>
     fc6:	81 e0       	ldi	r24, 0x01	; 1
     fc8:	61 2f       	mov	r22, r17
     fca:	0e 94 94 00 	call	0x128	; 0x128 <ds1820_wr_bit>
     fce:	81 e0       	ldi	r24, 0x01	; 1
     fd0:	61 2f       	mov	r22, r17
     fd2:	0e 94 94 00 	call	0x128	; 0x128 <ds1820_wr_bit>
     fd6:	80 e0       	ldi	r24, 0x00	; 0
     fd8:	61 2f       	mov	r22, r17
     fda:	0e 94 94 00 	call	0x128	; 0x128 <ds1820_wr_bit>
     fde:	80 e0       	ldi	r24, 0x00	; 0
     fe0:	61 2f       	mov	r22, r17
     fe2:	0e 94 94 00 	call	0x128	; 0x128 <ds1820_wr_bit>
     fe6:	81 e0       	ldi	r24, 0x01	; 1
     fe8:	61 2f       	mov	r22, r17
     fea:	0e 94 94 00 	call	0x128	; 0x128 <ds1820_wr_bit>
     fee:	81 e0       	ldi	r24, 0x01	; 1
     ff0:	61 2f       	mov	r22, r17
     ff2:	0e 94 94 00 	call	0x128	; 0x128 <ds1820_wr_bit>
     ff6:	00 c0       	rjmp	.+0      	; 0xff8 <ds1820_init+0x3a8>
     ff8:	00 c0       	rjmp	.+0      	; 0xffa <ds1820_init+0x3aa>
     ffa:	00 00       	nop
     ffc:	80 e0       	ldi	r24, 0x00	; 0
     ffe:	61 2f       	mov	r22, r17
    1000:	0e 94 94 00 	call	0x128	; 0x128 <ds1820_wr_bit>
    1004:	81 e0       	ldi	r24, 0x01	; 1
    1006:	61 2f       	mov	r22, r17
    1008:	0e 94 94 00 	call	0x128	; 0x128 <ds1820_wr_bit>
    100c:	81 e0       	ldi	r24, 0x01	; 1
    100e:	61 2f       	mov	r22, r17
    1010:	0e 94 94 00 	call	0x128	; 0x128 <ds1820_wr_bit>
    1014:	81 e0       	ldi	r24, 0x01	; 1
    1016:	61 2f       	mov	r22, r17
    1018:	0e 94 94 00 	call	0x128	; 0x128 <ds1820_wr_bit>
    101c:	81 e0       	ldi	r24, 0x01	; 1
    101e:	61 2f       	mov	r22, r17
    1020:	0e 94 94 00 	call	0x128	; 0x128 <ds1820_wr_bit>
    1024:	81 e0       	ldi	r24, 0x01	; 1
    1026:	61 2f       	mov	r22, r17
    1028:	0e 94 94 00 	call	0x128	; 0x128 <ds1820_wr_bit>
    102c:	80 e0       	ldi	r24, 0x00	; 0
    102e:	61 2f       	mov	r22, r17
    1030:	0e 94 94 00 	call	0x128	; 0x128 <ds1820_wr_bit>
    1034:	81 e0       	ldi	r24, 0x01	; 1
    1036:	61 2f       	mov	r22, r17
    1038:	0e 94 94 00 	call	0x128	; 0x128 <ds1820_wr_bit>
    103c:	00 c0       	rjmp	.+0      	; 0x103e <ds1820_init+0x3ee>
    103e:	00 c0       	rjmp	.+0      	; 0x1040 <ds1820_init+0x3f0>
    1040:	00 00       	nop
	    ds1820_wr_byte(0xCC,used_pin);  							//6. skip ROM
	    ds1820_wr_byte(0xBE,used_pin);  							//7. Read entire scratchpad 9 bytes
		}
    
	   
}
    1042:	df 91       	pop	r29
    1044:	cf 91       	pop	r28
    1046:	1f 91       	pop	r17
    1048:	ff 90       	pop	r15
    104a:	ef 90       	pop	r14
    104c:	08 95       	ret

	for (i=0; i < 8; i++) {
		rebit=ds1820_re_bit(used_pin);
		//_delay_us(2);									//be on the save side
		if (rebit==1){
			rebyte|=(1<<i);
    104e:	22 60       	ori	r18, 0x02	; 2
    1050:	cf ce       	rjmp	.-610    	; 0xdf0 <ds1820_init+0x1a0>
    1052:	20 68       	ori	r18, 0x80	; 128
	uint16_t i =0;
	error=ds1820_reset(used_pin);									//1. Reset
	if (error==0) {
	    ds1820_wr_byte(0xCC,used_pin);  							//2. skip ROM
	    ds1820_wr_byte(0x44,used_pin);  							//3. ask for temperature conversion
	    while (ds1820_re_byte(used_pin)==0xFF && i<1000){			//4. wait until conversion is finished 
    1054:	2f 3f       	cpi	r18, 0xFF	; 255
    1056:	09 f0       	breq	.+2      	; 0x105a <ds1820_init+0x40a>
    1058:	97 cf       	rjmp	.-210    	; 0xf88 <ds1820_init+0x338>
    105a:	41 50       	subi	r20, 0x01	; 1
    105c:	50 40       	sbci	r21, 0x00	; 0
    105e:	09 f4       	brne	.+2      	; 0x1062 <ds1820_init+0x412>
    1060:	93 cf       	rjmp	.-218    	; 0xf88 <ds1820_init+0x338>
    1062:	00 00       	nop
    1064:	80 ce       	rjmp	.-768    	; 0xd66 <ds1820_init+0x116>

	for (i=0; i < 8; i++) {
		rebit=ds1820_re_bit(used_pin);
		//_delay_us(2);									//be on the save side
		if (rebit==1){
			rebyte|=(1<<i);
    1066:	20 64       	ori	r18, 0x40	; 64
    1068:	6d cf       	rjmp	.-294    	; 0xf44 <ds1820_init+0x2f4>
    106a:	20 62       	ori	r18, 0x20	; 32
    106c:	49 cf       	rjmp	.-366    	; 0xf00 <ds1820_init+0x2b0>
    106e:	20 61       	ori	r18, 0x10	; 16
    1070:	25 cf       	rjmp	.-438    	; 0xebc <ds1820_init+0x26c>
    1072:	28 60       	ori	r18, 0x08	; 8
    1074:	01 cf       	rjmp	.-510    	; 0xe78 <ds1820_init+0x228>
    1076:	24 60       	ori	r18, 0x04	; 4
    1078:	dd ce       	rjmp	.-582    	; 0xe34 <ds1820_init+0x1e4>

0000107a <LCD_WriteByteToLCD>:
/*																		*/
/* Note that this destroys the input you give it.						*/
/* Also disables interrupts so it doesn't screw up; too lazy to find a	*/
/* cleaner way of preventing screw-ups/race conditions/					*/
/************************************************************************/
void LCD_WriteByteToLCD(uint8_t byte, uint8_t flags) {
    107a:	cf 93       	push	r28
    107c:	df 93       	push	r29
    107e:	0f 92       	push	r0
    1080:	cd b7       	in	r28, 0x3d	; 61
    1082:	de b7       	in	r29, 0x3e	; 62
	cli(); // Disable interrupts
    1084:	f8 94       	cli
	
	LCD_PORT |= LCD_CLK_BITMASK; // Make sure CLK is high
    1086:	11 9a       	sbi	0x02, 1	; 2
	LCD_PORT &= ~LCD_STB_BITMASK; // Set LCD enable pin to 0.
    1088:	12 98       	cbi	0x02, 2	; 2
	
	flags |= 0xF8; // First 5 bits are 1's
	
	// Loop to write the flag
	for (volatile uint8_t i = 0; i < 8; i++) {
    108a:	19 82       	std	Y+1, r1	; 0x01
    108c:	99 81       	ldd	r25, Y+1	; 0x01
    108e:	98 30       	cpi	r25, 0x08	; 8
    1090:	e0 f4       	brcc	.+56     	; 0x10ca <LCD_WriteByteToLCD+0x50>
	cli(); // Disable interrupts
	
	LCD_PORT |= LCD_CLK_BITMASK; // Make sure CLK is high
	LCD_PORT &= ~LCD_STB_BITMASK; // Set LCD enable pin to 0.
	
	flags |= 0xF8; // First 5 bits are 1's
    1092:	68 6f       	ori	r22, 0xF8	; 248
	// Loop to write the flag
	for (volatile uint8_t i = 0; i < 8; i++) {
		_delay_us(100); // Wait 100 microseconds for the VFD.
		LCD_PORT ^= (((flags & 0x80) >> 0x07) << LCD_SIO) + LCD_CLK_BITMASK; // Shift out a single bit, toggle the state of clk as well. (it's low now)
		_delay_us(100); // Wait 100 microseconds for the VFD.
		LCD_PORT ^= LCD_CLK_BITMASK; // Toggle clk again (It's high again)	
    1094:	32 e0       	ldi	r19, 0x02	; 2
    1096:	91 e2       	ldi	r25, 0x21	; 33
    1098:	9a 95       	dec	r25
    109a:	f1 f7       	brne	.-4      	; 0x1098 <LCD_WriteByteToLCD+0x1e>
    109c:	00 00       	nop
	flags |= 0xF8; // First 5 bits are 1's
	
	// Loop to write the flag
	for (volatile uint8_t i = 0; i < 8; i++) {
		_delay_us(100); // Wait 100 microseconds for the VFD.
		LCD_PORT ^= (((flags & 0x80) >> 0x07) << LCD_SIO) + LCD_CLK_BITMASK; // Shift out a single bit, toggle the state of clk as well. (it's low now)
    109e:	22 b1       	in	r18, 0x02	; 2
    10a0:	96 2f       	mov	r25, r22
    10a2:	99 1f       	adc	r25, r25
    10a4:	99 27       	eor	r25, r25
    10a6:	99 1f       	adc	r25, r25
    10a8:	9e 5f       	subi	r25, 0xFE	; 254
    10aa:	92 27       	eor	r25, r18
    10ac:	92 b9       	out	0x02, r25	; 2
    10ae:	91 e2       	ldi	r25, 0x21	; 33
    10b0:	9a 95       	dec	r25
    10b2:	f1 f7       	brne	.-4      	; 0x10b0 <LCD_WriteByteToLCD+0x36>
    10b4:	00 00       	nop
		_delay_us(100); // Wait 100 microseconds for the VFD.
		LCD_PORT ^= LCD_CLK_BITMASK; // Toggle clk again (It's high again)	
    10b6:	92 b1       	in	r25, 0x02	; 2
    10b8:	93 27       	eor	r25, r19
    10ba:	92 b9       	out	0x02, r25	; 2
		flags = flags << 0x01; // Shift byte to the left 1 bit.
    10bc:	66 0f       	add	r22, r22
	LCD_PORT &= ~LCD_STB_BITMASK; // Set LCD enable pin to 0.
	
	flags |= 0xF8; // First 5 bits are 1's
	
	// Loop to write the flag
	for (volatile uint8_t i = 0; i < 8; i++) {
    10be:	99 81       	ldd	r25, Y+1	; 0x01
    10c0:	9f 5f       	subi	r25, 0xFF	; 255
    10c2:	99 83       	std	Y+1, r25	; 0x01
    10c4:	99 81       	ldd	r25, Y+1	; 0x01
    10c6:	98 30       	cpi	r25, 0x08	; 8
    10c8:	30 f3       	brcs	.-52     	; 0x1096 <LCD_WriteByteToLCD+0x1c>
		LCD_PORT ^= LCD_CLK_BITMASK; // Toggle clk again (It's high again)	
		flags = flags << 0x01; // Shift byte to the left 1 bit.
	}
	
	// Loop to transfer the bytes
	for(volatile uint8_t i = 0; i < 7; i++) {
    10ca:	19 82       	std	Y+1, r1	; 0x01
    10cc:	99 81       	ldd	r25, Y+1	; 0x01
    10ce:	97 30       	cpi	r25, 0x07	; 7
    10d0:	d8 f4       	brcc	.+54     	; 0x1108 <__stack+0x9>
		_delay_us(100); // Wait 100 microseconds for the VFD.
		LCD_PORT ^= (((byte & 0x80) >> 0x07) << LCD_SIO) + LCD_CLK_BITMASK; // Shift out a single bit, toggle the state of clk as well. (it's low now)
		_delay_us(100); // Wait 100 microseconds for the VFD.
		LCD_PORT ^= LCD_CLK_BITMASK; // Toggle clk again (It's high again)
    10d2:	32 e0       	ldi	r19, 0x02	; 2
    10d4:	91 e2       	ldi	r25, 0x21	; 33
    10d6:	9a 95       	dec	r25
    10d8:	f1 f7       	brne	.-4      	; 0x10d6 <LCD_WriteByteToLCD+0x5c>
    10da:	00 00       	nop
	}
	
	// Loop to transfer the bytes
	for(volatile uint8_t i = 0; i < 7; i++) {
		_delay_us(100); // Wait 100 microseconds for the VFD.
		LCD_PORT ^= (((byte & 0x80) >> 0x07) << LCD_SIO) + LCD_CLK_BITMASK; // Shift out a single bit, toggle the state of clk as well. (it's low now)
    10dc:	22 b1       	in	r18, 0x02	; 2
    10de:	98 2f       	mov	r25, r24
    10e0:	99 1f       	adc	r25, r25
    10e2:	99 27       	eor	r25, r25
    10e4:	99 1f       	adc	r25, r25
    10e6:	9e 5f       	subi	r25, 0xFE	; 254
    10e8:	92 27       	eor	r25, r18
    10ea:	92 b9       	out	0x02, r25	; 2
    10ec:	91 e2       	ldi	r25, 0x21	; 33
    10ee:	9a 95       	dec	r25
    10f0:	f1 f7       	brne	.-4      	; 0x10ee <LCD_WriteByteToLCD+0x74>
    10f2:	00 00       	nop
		_delay_us(100); // Wait 100 microseconds for the VFD.
		LCD_PORT ^= LCD_CLK_BITMASK; // Toggle clk again (It's high again)
    10f4:	92 b1       	in	r25, 0x02	; 2
    10f6:	93 27       	eor	r25, r19
    10f8:	92 b9       	out	0x02, r25	; 2
		byte = byte << 0x01; // Shift byte to the left 1 bit.		
    10fa:	88 0f       	add	r24, r24
		LCD_PORT ^= LCD_CLK_BITMASK; // Toggle clk again (It's high again)	
		flags = flags << 0x01; // Shift byte to the left 1 bit.
	}
	
	// Loop to transfer the bytes
	for(volatile uint8_t i = 0; i < 7; i++) {
    10fc:	99 81       	ldd	r25, Y+1	; 0x01
    10fe:	9f 5f       	subi	r25, 0xFF	; 255
    1100:	99 83       	std	Y+1, r25	; 0x01
    1102:	99 81       	ldd	r25, Y+1	; 0x01
    1104:	97 30       	cpi	r25, 0x07	; 7
    1106:	30 f3       	brcs	.-52     	; 0x10d4 <LCD_WriteByteToLCD+0x5a>
		_delay_us(100); // Wait 100 microseconds for the VFD.
		LCD_PORT ^= LCD_CLK_BITMASK; // Toggle clk again (It's high again)
		byte = byte << 0x01; // Shift byte to the left 1 bit.		
	}
	
	LCD_PORT ^= (LCD_STB_BITMASK); // Make STB high again
    1108:	82 b1       	in	r24, 0x02	; 2
    110a:	94 e0       	ldi	r25, 0x04	; 4
    110c:	89 27       	eor	r24, r25
    110e:	82 b9       	out	0x02, r24	; 2
	
	sei(); // Re-enable interrupts
    1110:	78 94       	sei
}
    1112:	0f 90       	pop	r0
    1114:	df 91       	pop	r29
    1116:	cf 91       	pop	r28
    1118:	08 95       	ret

0000111a <LCD_InitIO>:
/************************************************************************/
/* Initialises IO ports for the VFD										*/
/************************************************************************/
void LCD_InitIO() {
	// Configure all three pins the LCD uses as outputs.
	LCD_DDR |= LCD_STB_BITMASK | LCD_CLK_BITMASK | LCD_SIO_BITMASK;
    111a:	81 b1       	in	r24, 0x01	; 1
    111c:	87 60       	ori	r24, 0x07	; 7
    111e:	81 b9       	out	0x01, r24	; 1
}
    1120:	08 95       	ret

00001122 <LCD_Init>:

/************************************************************************/
/* Initialises the VFD with the specified brightness.					*/
/************************************************************************/
void LCD_Init(uint8_t brightness) {
	brightness &= 0x03;
    1122:	83 70       	andi	r24, 0x03	; 3
	
	// Init LCD in 2 line mode, with specified brightness
	LCD_WriteByteToLCD(0x38 | brightness, 0x00);
    1124:	88 63       	ori	r24, 0x38	; 56
    1126:	60 e0       	ldi	r22, 0x00	; 0
    1128:	0e 94 3d 08 	call	0x107a	; 0x107a <LCD_WriteByteToLCD>
	
	// Set the cursor movement and autoincrement
	LCD_WriteByteToLCD(0x06, 0x00);
    112c:	86 e0       	ldi	r24, 0x06	; 6
    112e:	60 e0       	ldi	r22, 0x00	; 0
    1130:	0e 94 3d 08 	call	0x107a	; 0x107a <LCD_WriteByteToLCD>
}
    1134:	08 95       	ret

00001136 <LCD_ResetLCD>:
/************************************************************************/
void LCD_Init(uint8_t brightness) {
	brightness &= 0x03;
	
	// Init LCD in 2 line mode, with specified brightness
	LCD_WriteByteToLCD(0x38 | brightness, 0x00);
    1136:	88 e3       	ldi	r24, 0x38	; 56
    1138:	60 e0       	ldi	r22, 0x00	; 0
    113a:	0e 94 3d 08 	call	0x107a	; 0x107a <LCD_WriteByteToLCD>
	
	// Set the cursor movement and autoincrement
	LCD_WriteByteToLCD(0x06, 0x00);
    113e:	86 e0       	ldi	r24, 0x06	; 6
    1140:	60 e0       	ldi	r22, 0x00	; 0
    1142:	0e 94 3d 08 	call	0x107a	; 0x107a <LCD_WriteByteToLCD>

/************************************************************************/
/* Clears the entire screen and resets cursor to (0, 0).				*/
/************************************************************************/
void LCD_ClearScreen() {
	LCD_WriteByteToLCD(0x01, 0x00);
    1146:	81 e0       	ldi	r24, 0x01	; 1
    1148:	60 e0       	ldi	r22, 0x00	; 0
    114a:	0e 94 3d 08 	call	0x107a	; 0x107a <LCD_WriteByteToLCD>

/************************************************************************/
/* Resets the cursor to the home position, (0,0).						*/
/************************************************************************/
void LCD_CursorHome() {
	LCD_WriteByteToLCD(0x02, 0x00);
    114e:	82 e0       	ldi	r24, 0x02	; 2
    1150:	60 e0       	ldi	r22, 0x00	; 0
    1152:	0e 94 3d 08 	call	0x107a	; 0x107a <LCD_WriteByteToLCD>
/* Resets the VFD's controller.											*/
/************************************************************************/
void LCD_ResetLCD() {
	LCD_Init(0);
	LCD_ClearScreen();
}
    1156:	08 95       	ret

00001158 <LCD_ClearScreen>:

/************************************************************************/
/* Clears the entire screen and resets cursor to (0, 0).				*/
/************************************************************************/
void LCD_ClearScreen() {
	LCD_WriteByteToLCD(0x01, 0x00);
    1158:	81 e0       	ldi	r24, 0x01	; 1
    115a:	60 e0       	ldi	r22, 0x00	; 0
    115c:	0e 94 3d 08 	call	0x107a	; 0x107a <LCD_WriteByteToLCD>

/************************************************************************/
/* Resets the cursor to the home position, (0,0).						*/
/************************************************************************/
void LCD_CursorHome() {
	LCD_WriteByteToLCD(0x02, 0x00);
    1160:	82 e0       	ldi	r24, 0x02	; 2
    1162:	60 e0       	ldi	r22, 0x00	; 0
    1164:	0e 94 3d 08 	call	0x107a	; 0x107a <LCD_WriteByteToLCD>
/* Clears the entire screen and resets cursor to (0, 0).				*/
/************************************************************************/
void LCD_ClearScreen() {
	LCD_WriteByteToLCD(0x01, 0x00);
	LCD_CursorHome(); // reset cursor to (0, 0).
}
    1168:	08 95       	ret

0000116a <LCD_PutText>:


/************************************************************************/
/* Puts text from RAM to the current cursor position.					*/
/************************************************************************/
void LCD_PutText(uint8_t x, uint8_t y, char *text) {
    116a:	cf 93       	push	r28
    116c:	df 93       	push	r29
    116e:	ea 01       	movw	r28, r20
	// Make sure y is in range
	y &= 0x03;
	
	// Calculate DD-RAM loc (y * 0x40, plus x)
	uint8_t ddramloc = (y << 0x06) + x;
    1170:	62 95       	swap	r22
    1172:	66 0f       	add	r22, r22
    1174:	66 0f       	add	r22, r22
    1176:	60 7c       	andi	r22, 0xC0	; 192
    1178:	68 0f       	add	r22, r24
	
	// Write DD-RAM address
	LCD_WriteByteToLCD(0x80 | ddramloc, 0x00);
    117a:	86 2f       	mov	r24, r22
    117c:	80 68       	ori	r24, 0x80	; 128
    117e:	60 e0       	ldi	r22, 0x00	; 0
    1180:	0e 94 3d 08 	call	0x107a	; 0x107a <LCD_WriteByteToLCD>
	
	// Do we have more text to write?
	while(text != 0x00) {
    1184:	20 97       	sbiw	r28, 0x00	; 0
    1186:	39 f0       	breq	.+14     	; 0x1196 <LCD_PutText+0x2c>
		// Write next character. (RS = 1, RW = 0)
		LCD_WriteByteToLCD((uint8_t) text++, 0x02);
    1188:	8c 2f       	mov	r24, r28
    118a:	21 96       	adiw	r28, 0x01	; 1
    118c:	62 e0       	ldi	r22, 0x02	; 2
    118e:	0e 94 3d 08 	call	0x107a	; 0x107a <LCD_WriteByteToLCD>
	
	// Write DD-RAM address
	LCD_WriteByteToLCD(0x80 | ddramloc, 0x00);
	
	// Do we have more text to write?
	while(text != 0x00) {
    1192:	20 97       	sbiw	r28, 0x00	; 0
    1194:	c9 f7       	brne	.-14     	; 0x1188 <LCD_PutText+0x1e>
		// Write next character. (RS = 1, RW = 0)
		LCD_WriteByteToLCD((uint8_t) text++, 0x02);
	}
}
    1196:	df 91       	pop	r29
    1198:	cf 91       	pop	r28
    119a:	08 95       	ret

0000119c <LCD_PutText_P>:

/************************************************************************/
/* Puts text from PROGMEM to the current cursor position.				*/
/************************************************************************/
void LCD_PutText_P(uint8_t x, uint8_t y, char *text) {
    119c:	cf 93       	push	r28
    119e:	df 93       	push	r29
    11a0:	ea 01       	movw	r28, r20
	// Make sure y is in range
	y &= 0x03;
	
	// Calculate DD-RAM loc (y * 0x40, plus x)
	uint8_t ddramloc = (y << 0x06) + x;
    11a2:	62 95       	swap	r22
    11a4:	66 0f       	add	r22, r22
    11a6:	66 0f       	add	r22, r22
    11a8:	60 7c       	andi	r22, 0xC0	; 192
    11aa:	68 0f       	add	r22, r24
	
	// Write DD-RAM address
	LCD_WriteByteToLCD(0x80 | ddramloc, 0x00);
    11ac:	86 2f       	mov	r24, r22
    11ae:	80 68       	ori	r24, 0x80	; 128
    11b0:	60 e0       	ldi	r22, 0x00	; 0
    11b2:	04 c0       	rjmp	.+8      	; 0x11bc <LCD_PutText_P+0x20>
	
	// Do we have more text to write?
	while(pgm_read_byte(text) != 0x00) {
		// Write next character. (RS = 1, RW = 0)
		LCD_WriteByteToLCD(pgm_read_byte(text++), 0x02);
    11b4:	21 96       	adiw	r28, 0x01	; 1
    11b6:	fc 01       	movw	r30, r24
    11b8:	84 91       	lpm	r24, Z
    11ba:	62 e0       	ldi	r22, 0x02	; 2
	
	// Calculate DD-RAM loc (y * 0x40, plus x)
	uint8_t ddramloc = (y << 0x06) + x;
	
	// Write DD-RAM address
	LCD_WriteByteToLCD(0x80 | ddramloc, 0x00);
    11bc:	0e 94 3d 08 	call	0x107a	; 0x107a <LCD_WriteByteToLCD>
	
	// Do we have more text to write?
	while(pgm_read_byte(text) != 0x00) {
    11c0:	ce 01       	movw	r24, r28
    11c2:	fe 01       	movw	r30, r28
    11c4:	24 91       	lpm	r18, Z
    11c6:	22 23       	and	r18, r18
    11c8:	a9 f7       	brne	.-22     	; 0x11b4 <LCD_PutText_P+0x18>
		// Write next character. (RS = 1, RW = 0)
		LCD_WriteByteToLCD(pgm_read_byte(text++), 0x02);
	}	
}
    11ca:	df 91       	pop	r29
    11cc:	cf 91       	pop	r28
    11ce:	08 95       	ret

000011d0 <LCD_PutChar>:


/************************************************************************/
/* Puts a character from RAM to a specific on-screen position.			*/
/************************************************************************/
void LCD_PutChar(uint8_t x, uint8_t y, char character) {
    11d0:	cf 93       	push	r28
    11d2:	df 93       	push	r29
    11d4:	0f 92       	push	r0
    11d6:	cd b7       	in	r28, 0x3d	; 61
    11d8:	de b7       	in	r29, 0x3e	; 62
	// Make sure y is in range
	y &= 0x03;
	
	// Calculate DD-RAM loc (y * 0x40, plus x)
	uint8_t ddramloc = (y << 0x06) + x; 
    11da:	62 95       	swap	r22
    11dc:	66 0f       	add	r22, r22
    11de:	66 0f       	add	r22, r22
    11e0:	60 7c       	andi	r22, 0xC0	; 192
    11e2:	68 0f       	add	r22, r24
	
	// Write DD-RAM address
	LCD_WriteByteToLCD(0x80 | ddramloc, 0x00);
    11e4:	86 2f       	mov	r24, r22
    11e6:	80 68       	ori	r24, 0x80	; 128
    11e8:	60 e0       	ldi	r22, 0x00	; 0
    11ea:	49 83       	std	Y+1, r20	; 0x01
    11ec:	0e 94 3d 08 	call	0x107a	; 0x107a <LCD_WriteByteToLCD>
	
	// Write character to DD-RAM (RS is set to 1, RW set 0)
	LCD_WriteByteToLCD(character, 0x02);
    11f0:	49 81       	ldd	r20, Y+1	; 0x01
    11f2:	84 2f       	mov	r24, r20
    11f4:	62 e0       	ldi	r22, 0x02	; 2
    11f6:	0e 94 3d 08 	call	0x107a	; 0x107a <LCD_WriteByteToLCD>
}
    11fa:	0f 90       	pop	r0
    11fc:	df 91       	pop	r29
    11fe:	cf 91       	pop	r28
    1200:	08 95       	ret

00001202 <LCD_PutChar_P>:

/************************************************************************/
/* Puts a character from PROGMEM to a specific on-screen position.		*/
/************************************************************************/
void LCD_PutChar_P(uint8_t x, uint8_t y, char character) {
    1202:	cf 93       	push	r28
	// Just call the RAM version of this routine.
	LCD_PutChar(x, y, pgm_read_byte(character));
    1204:	e4 2f       	mov	r30, r20
    1206:	f0 e0       	ldi	r31, 0x00	; 0
    1208:	c4 91       	lpm	r28, Z
void LCD_PutChar(uint8_t x, uint8_t y, char character) {
	// Make sure y is in range
	y &= 0x03;
	
	// Calculate DD-RAM loc (y * 0x40, plus x)
	uint8_t ddramloc = (y << 0x06) + x; 
    120a:	62 95       	swap	r22
    120c:	66 0f       	add	r22, r22
    120e:	66 0f       	add	r22, r22
    1210:	60 7c       	andi	r22, 0xC0	; 192
    1212:	68 0f       	add	r22, r24
	
	// Write DD-RAM address
	LCD_WriteByteToLCD(0x80 | ddramloc, 0x00);
    1214:	86 2f       	mov	r24, r22
    1216:	80 68       	ori	r24, 0x80	; 128
    1218:	60 e0       	ldi	r22, 0x00	; 0
    121a:	0e 94 3d 08 	call	0x107a	; 0x107a <LCD_WriteByteToLCD>
	
	// Write character to DD-RAM (RS is set to 1, RW set 0)
	LCD_WriteByteToLCD(character, 0x02);
    121e:	8c 2f       	mov	r24, r28
    1220:	62 e0       	ldi	r22, 0x02	; 2
    1222:	0e 94 3d 08 	call	0x107a	; 0x107a <LCD_WriteByteToLCD>
/* Puts a character from PROGMEM to a specific on-screen position.		*/
/************************************************************************/
void LCD_PutChar_P(uint8_t x, uint8_t y, char character) {
	// Just call the RAM version of this routine.
	LCD_PutChar(x, y, pgm_read_byte(character));
}	
    1226:	cf 91       	pop	r28
    1228:	08 95       	ret

0000122a <LCD_SetCGRAM>:


/************************************************************************/
/* Sets a specific custom character in CG-RAM from PROGMEM.				*/
/************************************************************************/
void LCD_SetCGRAM(uint8_t character, char *data) {
    122a:	0f 93       	push	r16
    122c:	1f 93       	push	r17
    122e:	cf 93       	push	r28
    1230:	df 93       	push	r29
    1232:	0f 92       	push	r0
    1234:	cd b7       	in	r28, 0x3d	; 61
    1236:	de b7       	in	r29, 0x3e	; 62
    1238:	8b 01       	movw	r16, r22
	// Make sure value is in range
	character &= 0x07;
    123a:	87 70       	andi	r24, 0x07	; 7
	
	// Write the CGRAM address
	LCD_WriteByteToLCD(0x40 | (character << 0x03), 0x00);
    123c:	88 0f       	add	r24, r24
    123e:	88 0f       	add	r24, r24
    1240:	88 0f       	add	r24, r24
    1242:	80 64       	ori	r24, 0x40	; 64
    1244:	60 e0       	ldi	r22, 0x00	; 0
    1246:	0e 94 3d 08 	call	0x107a	; 0x107a <LCD_WriteByteToLCD>
	
	for (volatile uint8_t i = 0; i < 8; i++) {
    124a:	19 82       	std	Y+1, r1	; 0x01
    124c:	89 81       	ldd	r24, Y+1	; 0x01
    124e:	88 30       	cpi	r24, 0x08	; 8
    1250:	68 f4       	brcc	.+26     	; 0x126c <LCD_SetCGRAM+0x42>
		// Write a character of the CGRAM data (RS = 1, RW = 0)
		LCD_WriteByteToLCD(pgm_read_byte(data++), 0x02);
    1252:	f8 01       	movw	r30, r16
    1254:	0f 5f       	subi	r16, 0xFF	; 255
    1256:	1f 4f       	sbci	r17, 0xFF	; 255
    1258:	84 91       	lpm	r24, Z
    125a:	62 e0       	ldi	r22, 0x02	; 2
    125c:	0e 94 3d 08 	call	0x107a	; 0x107a <LCD_WriteByteToLCD>
	character &= 0x07;
	
	// Write the CGRAM address
	LCD_WriteByteToLCD(0x40 | (character << 0x03), 0x00);
	
	for (volatile uint8_t i = 0; i < 8; i++) {
    1260:	89 81       	ldd	r24, Y+1	; 0x01
    1262:	8f 5f       	subi	r24, 0xFF	; 255
    1264:	89 83       	std	Y+1, r24	; 0x01
    1266:	89 81       	ldd	r24, Y+1	; 0x01
    1268:	88 30       	cpi	r24, 0x08	; 8
    126a:	98 f3       	brcs	.-26     	; 0x1252 <LCD_SetCGRAM+0x28>
		// Write a character of the CGRAM data (RS = 1, RW = 0)
		LCD_WriteByteToLCD(pgm_read_byte(data++), 0x02);
	}
}
    126c:	0f 90       	pop	r0
    126e:	df 91       	pop	r29
    1270:	cf 91       	pop	r28
    1272:	1f 91       	pop	r17
    1274:	0f 91       	pop	r16
    1276:	08 95       	ret

00001278 <LCD_CursorHome>:

/************************************************************************/
/* Resets the cursor to the home position, (0,0).						*/
/************************************************************************/
void LCD_CursorHome() {
	LCD_WriteByteToLCD(0x02, 0x00);
    1278:	82 e0       	ldi	r24, 0x02	; 2
    127a:	60 e0       	ldi	r22, 0x00	; 0
    127c:	0e 94 3d 08 	call	0x107a	; 0x107a <LCD_WriteByteToLCD>
}
    1280:	08 95       	ret

00001282 <LCD_SetCursorPos>:
/************************************************************************/
/* Sets the cursor's position to the specified X and Y coordinates.		*/
/************************************************************************/
void LCD_SetCursorPos(uint8_t x, uint8_t y) {
	// TODO: Implement	
}
    1282:	08 95       	ret

00001284 <LCD_SetDisplayState>:
/************************************************************************/
/* Sets the LCD's internal state, such as disable/enable display, cursor*/
/* display, and the cursor blinking.									*/
/************************************************************************/
void LCD_SetDisplayState(uint8_t dispOn, uint8_t cursorOn, uint8_t cursorBlink) {
	LCD_WriteByteToLCD(0x08 | ((dispOn & 0x01) << 0x02) | ((cursorOn & 0x01) << 0x01) | (cursorBlink & 0x01), 0x00);
    1284:	28 2f       	mov	r18, r24
    1286:	30 e0       	ldi	r19, 0x00	; 0
    1288:	21 70       	andi	r18, 0x01	; 1
    128a:	30 70       	andi	r19, 0x00	; 0
    128c:	22 0f       	add	r18, r18
    128e:	33 1f       	adc	r19, r19
    1290:	22 0f       	add	r18, r18
    1292:	33 1f       	adc	r19, r19
    1294:	41 70       	andi	r20, 0x01	; 1
    1296:	42 2b       	or	r20, r18
    1298:	48 60       	ori	r20, 0x08	; 8
    129a:	70 e0       	ldi	r23, 0x00	; 0
    129c:	61 70       	andi	r22, 0x01	; 1
    129e:	70 70       	andi	r23, 0x00	; 0
    12a0:	66 0f       	add	r22, r22
    12a2:	77 1f       	adc	r23, r23
    12a4:	84 2f       	mov	r24, r20
    12a6:	86 2b       	or	r24, r22
    12a8:	60 e0       	ldi	r22, 0x00	; 0
    12aa:	0e 94 3d 08 	call	0x107a	; 0x107a <LCD_WriteByteToLCD>
    12ae:	08 95       	ret

000012b0 <InitSPI>:
	UCSR0B |= (1 << RXCIE0);
}

// Initialise SPI in master mode.
void InitSPI() {
	SPCR = (1 << SPE) | (1 << MSTR) | (1 << SPR0); // Enable SPI with SCK = FCK/16
    12b0:	81 e5       	ldi	r24, 0x51	; 81
    12b2:	8c bd       	out	0x2c, r24	; 44
	DDRB |= (1 << PB7) | (1 << PB5); // SCK and MOSI as outputs
    12b4:	84 b1       	in	r24, 0x04	; 4
    12b6:	80 6a       	ori	r24, 0xA0	; 160
    12b8:	84 b9       	out	0x04, r24	; 4
}
    12ba:	08 95       	ret

000012bc <InitInterrupts>:

// Initialise external ADC interrupt.
void InitInterrupts() {
	PCMSK1 |= (1 << PINB1); // Enable pin B1 on-change interrupt
    12bc:	ec e6       	ldi	r30, 0x6C	; 108
    12be:	f0 e0       	ldi	r31, 0x00	; 0
    12c0:	80 81       	ld	r24, Z
    12c2:	82 60       	ori	r24, 0x02	; 2
    12c4:	80 83       	st	Z, r24
	PCICR |= 0x02; // Enable interrupts for pins 9-16.
    12c6:	e8 e6       	ldi	r30, 0x68	; 104
    12c8:	f0 e0       	ldi	r31, 0x00	; 0
    12ca:	80 81       	ld	r24, Z
    12cc:	82 60       	ori	r24, 0x02	; 2
    12ce:	80 83       	st	Z, r24
}
    12d0:	08 95       	ret

000012d2 <InitPWMTimer>:
void InitPWMTimer() {
/*	// Set OC2B when up counting, toggle OC1B when TOP is reached.
	TCCR2A = (1 << COM2A0) | (1 << COM2B0) | (1 << COM2B1) | (1 << WGM20);
	// Prescaler Clk/256
	TCCR2B = (1 << CS22) | (1 << CS21);*/
}
    12d2:	08 95       	ret

000012d4 <updateCaseTemp>:
/************************************************************************/
/* Various utility interface routines.									*/
/************************************************************************/

void updateCaseTemp() {
	temp_case = ds1820_read_temp(TEMP_CASE_PIN);
    12d4:	83 e0       	ldi	r24, 0x03	; 3
    12d6:	0e 94 5b 02 	call	0x4b6	; 0x4b6 <ds1820_read_temp>
    12da:	dc 01       	movw	r26, r24
    12dc:	cb 01       	movw	r24, r22
    12de:	80 93 12 01 	sts	0x0112, r24
    12e2:	90 93 13 01 	sts	0x0113, r25
    12e6:	a0 93 14 01 	sts	0x0114, r26
    12ea:	b0 93 15 01 	sts	0x0115, r27
    12ee:	08 95       	ret

000012f0 <InitIOPorts>:
    }
}

void InitIOPorts() {
	// Initialize the LCD IO ports
	LCD_InitIO();
    12f0:	0e 94 8d 08 	call	0x111a	; 0x111a <LCD_InitIO>
// Initialise UART0.
void InitUART() {
	int baud = 19200;
	
	// Set baud rate (19200 bps at 20 MHz clock)
	UBRR0H = (unsigned char) (baud>>8);
    12f4:	8b e4       	ldi	r24, 0x4B	; 75
    12f6:	80 93 c5 00 	sts	0x00C5, r24
	UBRR0L = (unsigned char) baud;
    12fa:	10 92 c4 00 	sts	0x00C4, r1
	
	// Enable receiver and transmitter
	UCSR0B = (1<<RXEN0)|(1<<TXEN0);
    12fe:	e1 ec       	ldi	r30, 0xC1	; 193
    1300:	f0 e0       	ldi	r31, 0x00	; 0
    1302:	88 e1       	ldi	r24, 0x18	; 24
    1304:	80 83       	st	Z, r24
	// Set frame format: 8data, 2stop bit
	UCSR0C = (1<<USBS0)|(3<<UCSZ00);
    1306:	8e e0       	ldi	r24, 0x0E	; 14
    1308:	80 93 c2 00 	sts	0x00C2, r24
	
	// Enable receive interrupt
	UCSR0B |= (1 << RXCIE0);
    130c:	80 81       	ld	r24, Z
    130e:	80 68       	ori	r24, 0x80	; 128
    1310:	80 83       	st	Z, r24
void InitIOPorts() {
	// Initialize the LCD IO ports
	LCD_InitIO();
	
	InitUART();
	InitSPI();
    1312:	0e 94 58 09 	call	0x12b0	; 0x12b0 <InitSPI>
	InitInterrupts();
    1316:	0e 94 5e 09 	call	0x12bc	; 0x12bc <InitInterrupts>
	InitPWMTimer();
    131a:	0e 94 69 09 	call	0x12d2	; 0x12d2 <InitPWMTimer>
	
	// Initialise our rotary encoder; takes care of setting the timer.
	rotary_init();
    131e:	0e 94 36 0a 	call	0x146c	; 0x146c <rotary_init>
	rotary_resetStatus();
    1322:	0e 94 d4 0a 	call	0x15a8	; 0x15a8 <rotary_resetStatus>
	
	// Configure IO ports for other peripherals
	CHRelayDDR |= (1 << CH1Relay) | (1 << CH2Relay); // Relay pins as outputs
    1326:	8a b1       	in	r24, 0x0a	; 10
    1328:	80 63       	ori	r24, 0x30	; 48
    132a:	8a b9       	out	0x0a, r24	; 10
	CHLEDDDR |= (1 << CH1LED) | (1 << CH2LED); // LED pins as outputs
    132c:	8a b1       	in	r24, 0x0a	; 10
    132e:	8c 60       	ori	r24, 0x0C	; 12
    1330:	8a b9       	out	0x0a, r24	; 10
	SPI_CS_DDR |= (1 << SPI_CS_ADC) | (1 << SPI_CS_CH1) | (1 << SPI_CS_CH2); // SPI CS outputs
    1332:	84 b1       	in	r24, 0x04	; 4
    1334:	8c 61       	ori	r24, 0x1C	; 28
    1336:	84 b9       	out	0x04, r24	; 4
	
	DDRD |= (1 << PD6) | (1 << PD7); // FAN PWM and speaker output
    1338:	8a b1       	in	r24, 0x0a	; 10
    133a:	80 6c       	ori	r24, 0xC0	; 192
    133c:	8a b9       	out	0x0a, r24	; 10
	
	PORTA |= (1 << PA4) | (1 << PA5) | (1 << PA6) | (1 << PA7); // pull-ups on switch inputs
    133e:	82 b1       	in	r24, 0x02	; 2
    1340:	80 6f       	ori	r24, 0xF0	; 240
    1342:	82 b9       	out	0x02, r24	; 2
	DDRA |= (1 << PA4) | (1 << PA5) | (1 << PA6) | (1 << PA7); // switch inputs
    1344:	81 b1       	in	r24, 0x01	; 1
    1346:	80 6f       	ori	r24, 0xF0	; 240
    1348:	81 b9       	out	0x01, r24	; 1
	
	DDRB &= ~(1 << PB1); // Make sure PB1 (!ADC_RDY!) is an input.
    134a:	21 98       	cbi	0x04, 1	; 4
	// Initialise temperature sensors
	ds1820_init(TEMP_CASE_PIN);
    134c:	83 e0       	ldi	r24, 0x03	; 3
    134e:	0e 94 28 06 	call	0xc50	; 0xc50 <ds1820_init>
	
	sei(); // Enable interrupts
    1352:	78 94       	sei
}	
    1354:	08 95       	ret

00001356 <InitUART>:
// Initialise UART0.
void InitUART() {
	int baud = 19200;
	
	// Set baud rate (19200 bps at 20 MHz clock)
	UBRR0H = (unsigned char) (baud>>8);
    1356:	8b e4       	ldi	r24, 0x4B	; 75
    1358:	80 93 c5 00 	sts	0x00C5, r24
	UBRR0L = (unsigned char) baud;
    135c:	10 92 c4 00 	sts	0x00C4, r1
	
	// Enable receiver and transmitter
	UCSR0B = (1<<RXEN0)|(1<<TXEN0);
    1360:	e1 ec       	ldi	r30, 0xC1	; 193
    1362:	f0 e0       	ldi	r31, 0x00	; 0
    1364:	88 e1       	ldi	r24, 0x18	; 24
    1366:	80 83       	st	Z, r24
	// Set frame format: 8data, 2stop bit
	UCSR0C = (1<<USBS0)|(3<<UCSZ00);
    1368:	8e e0       	ldi	r24, 0x0E	; 14
    136a:	80 93 c2 00 	sts	0x00C2, r24
	
	// Enable receive interrupt
	UCSR0B |= (1 << RXCIE0);
    136e:	80 81       	ld	r24, Z
    1370:	80 68       	ori	r24, 0x80	; 128
    1372:	80 83       	st	Z, r24
}
    1374:	08 95       	ret

00001376 <__vector_5>:
/************************************************************************/
/* Voltage/current measurement stuff									*/
/************************************************************************/

// Called when there is a state change in the !ADC_RDY! input.
ISR(PCINT1_vect, ISR_BLOCK) {
    1376:	1f 92       	push	r1
    1378:	0f 92       	push	r0
    137a:	0f b6       	in	r0, 0x3f	; 63
    137c:	0f 92       	push	r0
    137e:	11 24       	eor	r1, r1
    1380:	8f 93       	push	r24
	// We have data ready.
	if(PORTB & (1 << PINB1) == 0) {
    1382:	85 b1       	in	r24, 0x05	; 5
		
	} else {
		// The input transitioned back to high -- ignore this.
	}
}
    1384:	8f 91       	pop	r24
    1386:	0f 90       	pop	r0
    1388:	0f be       	out	0x3f, r0	; 63
    138a:	0f 90       	pop	r0
    138c:	1f 90       	pop	r1
    138e:	18 95       	reti

00001390 <__vector_20>:

/************************************************************************/
/* USART Interrupt Handler Routines	(For receive)						*/
/************************************************************************/

ISR(USART0_RX_vect, ISR_BLOCK) {
    1390:	1f 92       	push	r1
    1392:	0f 92       	push	r0
    1394:	0f b6       	in	r0, 0x3f	; 63
    1396:	0f 92       	push	r0
    1398:	11 24       	eor	r1, r1
    139a:	8f 93       	push	r24
    139c:	9f 93       	push	r25
    139e:	ef 93       	push	r30
    13a0:	ff 93       	push	r31
	// Read a byte from the FIFO into our buffer, increment counter.
	UART0_readBuffer[UART0_curReadBuffPos] = UDR0;
    13a2:	80 91 16 01 	lds	r24, 0x0116
    13a6:	90 91 c6 00 	lds	r25, 0x00C6
    13aa:	e7 e1       	ldi	r30, 0x17	; 23
    13ac:	f1 e0       	ldi	r31, 0x01	; 1
    13ae:	e8 0f       	add	r30, r24
    13b0:	f1 1d       	adc	r31, r1
    13b2:	90 83       	st	Z, r25
	UART0_curReadBuffPos++;
    13b4:	8f 5f       	subi	r24, 0xFF	; 255
    13b6:	80 93 16 01 	sts	0x0116, r24
}
    13ba:	ff 91       	pop	r31
    13bc:	ef 91       	pop	r30
    13be:	9f 91       	pop	r25
    13c0:	8f 91       	pop	r24
    13c2:	0f 90       	pop	r0
    13c4:	0f be       	out	0x3f, r0	; 63
    13c6:	0f 90       	pop	r0
    13c8:	1f 90       	pop	r1
    13ca:	18 95       	reti

000013cc <USART_SendByte>:
/* USART Interface Routines												*/
/************************************************************************/

void USART_SendByte(char character) {
	// Wait until the USART is ready to accept more data.
	while ((UCSR0A & (1 << UDRE0)) == 0) {};
    13cc:	90 91 c0 00 	lds	r25, 0x00C0
    13d0:	95 ff       	sbrs	r25, 5
    13d2:	fc cf       	rjmp	.-8      	; 0x13cc <USART_SendByte>

	// Send out the character
	UDR0 = character;
    13d4:	80 93 c6 00 	sts	0x00C6, r24
}
    13d8:	08 95       	ret

000013da <USART_SendChars_P>:

void USART_SendChars_P(char *string) {
	while(pgm_read_byte(string) != 0x00) {
    13da:	9c 01       	movw	r18, r24
    13dc:	fc 01       	movw	r30, r24
    13de:	44 91       	lpm	r20, Z
    13e0:	44 23       	and	r20, r20
    13e2:	51 f0       	breq	.+20     	; 0x13f8 <USART_SendChars_P+0x1e>
		USART_SendByte(pgm_read_byte(string++));	
    13e4:	01 96       	adiw	r24, 0x01	; 1
    13e6:	f9 01       	movw	r30, r18
    13e8:	24 91       	lpm	r18, Z
/* USART Interface Routines												*/
/************************************************************************/

void USART_SendByte(char character) {
	// Wait until the USART is ready to accept more data.
	while ((UCSR0A & (1 << UDRE0)) == 0) {};
    13ea:	30 91 c0 00 	lds	r19, 0x00C0
    13ee:	35 ff       	sbrs	r19, 5
    13f0:	fc cf       	rjmp	.-8      	; 0x13ea <USART_SendChars_P+0x10>

	// Send out the character
	UDR0 = character;
    13f2:	20 93 c6 00 	sts	0x00C6, r18
    13f6:	f1 cf       	rjmp	.-30     	; 0x13da <USART_SendChars_P>
    13f8:	08 95       	ret

000013fa <USART_SendChars>:
	while(pgm_read_byte(string) != 0x00) {
		USART_SendByte(pgm_read_byte(string++));	
	}
}

void USART_SendChars(char *string) {
    13fa:	fc 01       	movw	r30, r24
	while(*string != 0x00) {
    13fc:	90 81       	ld	r25, Z
    13fe:	99 23       	and	r25, r25
    1400:	51 f0       	breq	.+20     	; 0x1416 <USART_SendChars+0x1c>
	while(pgm_read_byte(string) != 0x00) {
		USART_SendByte(pgm_read_byte(string++));	
	}
}

void USART_SendChars(char *string) {
    1402:	31 96       	adiw	r30, 0x01	; 1
/* USART Interface Routines												*/
/************************************************************************/

void USART_SendByte(char character) {
	// Wait until the USART is ready to accept more data.
	while ((UCSR0A & (1 << UDRE0)) == 0) {};
    1404:	80 91 c0 00 	lds	r24, 0x00C0
    1408:	85 ff       	sbrs	r24, 5
    140a:	fc cf       	rjmp	.-8      	; 0x1404 <USART_SendChars+0xa>

	// Send out the character
	UDR0 = character;
    140c:	90 93 c6 00 	sts	0x00C6, r25
		USART_SendByte(pgm_read_byte(string++));	
	}
}

void USART_SendChars(char *string) {
	while(*string != 0x00) {
    1410:	91 91       	ld	r25, Z+
    1412:	99 23       	and	r25, r25
    1414:	b9 f7       	brne	.-18     	; 0x1404 <USART_SendChars+0xa>
    1416:	08 95       	ret

00001418 <SPI_ReceiveChar>:
/* SPI Interface Routines												*/
/************************************************************************/

char SPI_ReceiveChar(void) {
	// Wait for reception complete
	while(!(SPSR & (1<<SPIF)));
    1418:	0d b4       	in	r0, 0x2d	; 45
    141a:	07 fe       	sbrs	r0, 7
    141c:	fd cf       	rjmp	.-6      	; 0x1418 <SPI_ReceiveChar>
	// Return Data Register
	return SPDR;
    141e:	8e b5       	in	r24, 0x2e	; 46
}
    1420:	08 95       	ret

00001422 <SPI_SendChar>:

void SPI_SendChar(char cData) {
	// Start transmission
	SPDR = cData;
    1422:	8e bd       	out	0x2e, r24	; 46
	// Wait for the transmission to complete
	while(! (SPSR & (1 << SPIF)));
    1424:	0d b4       	in	r0, 0x2d	; 45
    1426:	07 fe       	sbrs	r0, 7
    1428:	fd cf       	rjmp	.-6      	; 0x1424 <SPI_SendChar+0x2>
}
    142a:	08 95       	ret

0000142c <SPI_SendChars>:

void SPI_SendChars(char *string) {
    142c:	fc 01       	movw	r30, r24
	while(*string != 0x00) {
    142e:	81 91       	ld	r24, Z+
    1430:	88 23       	and	r24, r24
    1432:	49 f0       	breq	.+18     	; 0x1446 <SPI_SendChars+0x1a>
	SPDR = cData;
	// Wait for the transmission to complete
	while(! (SPSR & (1 << SPIF)));
}

void SPI_SendChars(char *string) {
    1434:	8e 2f       	mov	r24, r30
    1436:	81 50       	subi	r24, 0x01	; 1
	return SPDR;
}

void SPI_SendChar(char cData) {
	// Start transmission
	SPDR = cData;
    1438:	8e bd       	out	0x2e, r24	; 46
	// Wait for the transmission to complete
	while(! (SPSR & (1 << SPIF)));
    143a:	0d b4       	in	r0, 0x2d	; 45
    143c:	07 fe       	sbrs	r0, 7
    143e:	fd cf       	rjmp	.-6      	; 0x143a <SPI_SendChars+0xe>
}

void SPI_SendChars(char *string) {
	while(*string != 0x00) {
    1440:	81 91       	ld	r24, Z+
    1442:	88 23       	and	r24, r24
    1444:	b9 f7       	brne	.-18     	; 0x1434 <SPI_SendChars+0x8>
		SPI_SendChar(string++);
	}
}
    1446:	08 95       	ret

00001448 <SPI_SendChars_P>:

void SPI_SendChars_P(char *string) {
	while(pgm_read_byte(string) != 0x00) {
    1448:	9c 01       	movw	r18, r24
    144a:	fc 01       	movw	r30, r24
    144c:	44 91       	lpm	r20, Z
    144e:	44 23       	and	r20, r20
    1450:	61 f0       	breq	.+24     	; 0x146a <SPI_SendChars_P+0x22>
		SPI_SendChar(pgm_read_byte(string++));
    1452:	01 96       	adiw	r24, 0x01	; 1
    1454:	f9 01       	movw	r30, r18
    1456:	24 91       	lpm	r18, Z
	return SPDR;
}

void SPI_SendChar(char cData) {
	// Start transmission
	SPDR = cData;
    1458:	2e bd       	out	0x2e, r18	; 46
	// Wait for the transmission to complete
	while(! (SPSR & (1 << SPIF)));
    145a:	0d b4       	in	r0, 0x2d	; 45
    145c:	07 fe       	sbrs	r0, 7
    145e:	fd cf       	rjmp	.-6      	; 0x145a <SPI_SendChars_P+0x12>
		SPI_SendChar(string++);
	}
}

void SPI_SendChars_P(char *string) {
	while(pgm_read_byte(string) != 0x00) {
    1460:	9c 01       	movw	r18, r24
    1462:	fc 01       	movw	r30, r24
    1464:	44 91       	lpm	r20, Z
    1466:	44 23       	and	r20, r20
    1468:	a1 f7       	brne	.-24     	; 0x1452 <SPI_SendChars_P+0xa>
		SPI_SendChar(pgm_read_byte(string++));
	}
}
    146a:	08 95       	ret

0000146c <rotary_init>:
/************************************************************************/
/* Initialise IO ports and timer.										*/
/************************************************************************/
void rotary_init(void) {
	//set pins as input
	ROTDDR &= ~((1<<ROTPA)|(1<<ROTPB)|(1<<ROTPBUTTON));
    146c:	81 b1       	in	r24, 0x01	; 1
    146e:	8f 78       	andi	r24, 0x8F	; 143
    1470:	81 b9       	out	0x01, r24	; 1
	//enable interrnal pullups;
	ROTPORT |= (1<<ROTPA)|(1<<ROTPB)|(1<<ROTPBUTTON);
    1472:	82 b1       	in	r24, 0x02	; 2
    1474:	80 67       	ori	r24, 0x70	; 112
    1476:	82 b9       	out	0x02, r24	; 2
	
	// Set up our timer.
	TCCR0A = 0x00; // normal port operation, no outputs to pins.
    1478:	14 bc       	out	0x24, r1	; 36
	TCCR0B |= (1<<CS22) | (1<<CS20); //prescaler of 1024
    147a:	85 b5       	in	r24, 0x25	; 37
    147c:	85 60       	ori	r24, 0x05	; 5
    147e:	85 bd       	out	0x25, r24	; 37
	OCR0A = 0xC3; // Interrupt frequency of 100Hz at 20 MHz CPU clock
    1480:	83 ec       	ldi	r24, 0xC3	; 195
    1482:	87 bd       	out	0x27, r24	; 39
	
	TIMSK0 |= (1 << TOIE0); //Enable Timer0 Overflow interrupts
    1484:	ee e6       	ldi	r30, 0x6E	; 110
    1486:	f0 e0       	ldi	r31, 0x00	; 0
    1488:	80 81       	ld	r24, Z
    148a:	81 60       	ori	r24, 0x01	; 1
    148c:	80 83       	st	Z, r24
}
    148e:	08 95       	ret

00001490 <rotary_checkStatus>:

/************************************************************************/
/* Check rotary encoder status.											*/
/************************************************************************/
void rotary_checkStatus(void) {
    1490:	cf 93       	push	r28
    1492:	df 93       	push	r29
    1494:	00 d0       	rcall	.+0      	; 0x1496 <rotary_checkStatus+0x6>
    1496:	cd b7       	in	r28, 0x3d	; 61
    1498:	de b7       	in	r29, 0x3e	; 62
//check if rotation is left
 	if(ROTA & (!wait)) {
    149a:	80 b1       	in	r24, 0x00	; 0
    149c:	40 91 10 01 	lds	r20, 0x0110
    14a0:	84 fd       	sbrc	r24, 4
    14a2:	03 c0       	rjmp	.+6      	; 0x14aa <rotary_checkStatus+0x1a>
    14a4:	44 23       	and	r20, r20
    14a6:	09 f4       	brne	.+2      	; 0x14aa <rotary_checkStatus+0x1a>
    14a8:	49 c0       	rjmp	.+146    	; 0x153c <rotary_checkStatus+0xac>
    14aa:	24 2f       	mov	r18, r20
    14ac:	30 e0       	ldi	r19, 0x00	; 0
		wait = 1;
	} 
	
	if (ROTB & ROTA & (wait)) {
    14ae:	50 b1       	in	r21, 0x00	; 0
    14b0:	80 b1       	in	r24, 0x00	; 0
    14b2:	91 e0       	ldi	r25, 0x01	; 1
    14b4:	84 fd       	sbrc	r24, 4
    14b6:	90 e0       	ldi	r25, 0x00	; 0
    14b8:	81 e0       	ldi	r24, 0x01	; 1
    14ba:	55 fd       	sbrc	r21, 5
    14bc:	80 e0       	ldi	r24, 0x00	; 0
    14be:	89 23       	and	r24, r25
    14c0:	90 e0       	ldi	r25, 0x00	; 0
    14c2:	82 23       	and	r24, r18
    14c4:	93 23       	and	r25, r19
    14c6:	00 97       	sbiw	r24, 0x00	; 0
    14c8:	09 f4       	brne	.+2      	; 0x14cc <rotary_checkStatus+0x3c>
    14ca:	3f c0       	rjmp	.+126    	; 0x154a <rotary_checkStatus+0xba>
		rotarystatus = 2;
    14cc:	82 e0       	ldi	r24, 0x02	; 2
    14ce:	80 93 11 01 	sts	0x0111, r24
		wait = 2;
    14d2:	80 93 10 01 	sts	0x0110, r24
    14d6:	21 e0       	ldi	r18, 0x01	; 1
    14d8:	30 e0       	ldi	r19, 0x00	; 0
	} else if(ROTA & (!ROTB) & wait) {
		rotarystatus = 1;
		wait = 2;	
	}
	
	if ((!ROTA) & !(ROTB) & (wait==2)) {
    14da:	40 b1       	in	r20, 0x00	; 0
    14dc:	80 b1       	in	r24, 0x00	; 0
    14de:	91 e0       	ldi	r25, 0x01	; 1
    14e0:	85 ff       	sbrs	r24, 5
    14e2:	90 e0       	ldi	r25, 0x00	; 0
    14e4:	81 e0       	ldi	r24, 0x01	; 1
    14e6:	44 ff       	sbrs	r20, 4
    14e8:	80 e0       	ldi	r24, 0x00	; 0
    14ea:	89 23       	and	r24, r25
    14ec:	90 e0       	ldi	r25, 0x00	; 0
    14ee:	82 23       	and	r24, r18
    14f0:	93 23       	and	r25, r19
    14f2:	00 97       	sbiw	r24, 0x00	; 0
    14f4:	11 f0       	breq	.+4      	; 0x14fa <rotary_checkStatus+0x6a>
		wait=0;
    14f6:	10 92 10 01 	sts	0x0110, r1
	}
	
	//check button status
	if (ROTCLICK) {
    14fa:	80 b1       	in	r24, 0x00	; 0
    14fc:	86 fd       	sbrc	r24, 6
    14fe:	19 c0       	rjmp	.+50     	; 0x1532 <rotary_checkStatus+0xa2>
		for(volatile uint16_t x=0; x < 0xFFF; x++) {
    1500:	1a 82       	std	Y+2, r1	; 0x02
    1502:	19 82       	std	Y+1, r1	; 0x01
    1504:	89 81       	ldd	r24, Y+1	; 0x01
    1506:	9a 81       	ldd	r25, Y+2	; 0x02
    1508:	2f e0       	ldi	r18, 0x0F	; 15
    150a:	8f 3f       	cpi	r24, 0xFF	; 255
    150c:	92 07       	cpc	r25, r18
    150e:	58 f4       	brcc	.+22     	; 0x1526 <rotary_checkStatus+0x96>
    1510:	89 81       	ldd	r24, Y+1	; 0x01
    1512:	9a 81       	ldd	r25, Y+2	; 0x02
    1514:	01 96       	adiw	r24, 0x01	; 1
    1516:	9a 83       	std	Y+2, r25	; 0x02
    1518:	89 83       	std	Y+1, r24	; 0x01
    151a:	89 81       	ldd	r24, Y+1	; 0x01
    151c:	9a 81       	ldd	r25, Y+2	; 0x02
    151e:	2f e0       	ldi	r18, 0x0F	; 15
    1520:	8f 3f       	cpi	r24, 0xFF	; 255
    1522:	92 07       	cpc	r25, r18
    1524:	a8 f3       	brcs	.-22     	; 0x1510 <rotary_checkStatus+0x80>
			
		}
		
		if (ROTCLICK) {
    1526:	80 b1       	in	r24, 0x00	; 0
    1528:	86 fd       	sbrc	r24, 6
    152a:	03 c0       	rjmp	.+6      	; 0x1532 <rotary_checkStatus+0xa2>
			rotarystatus = 4;
    152c:	84 e0       	ldi	r24, 0x04	; 4
    152e:	80 93 11 01 	sts	0x0111, r24
		}
	}		
}
    1532:	0f 90       	pop	r0
    1534:	0f 90       	pop	r0
    1536:	df 91       	pop	r29
    1538:	cf 91       	pop	r28
    153a:	08 95       	ret
/* Check rotary encoder status.											*/
/************************************************************************/
void rotary_checkStatus(void) {
//check if rotation is left
 	if(ROTA & (!wait)) {
		wait = 1;
    153c:	81 e0       	ldi	r24, 0x01	; 1
    153e:	80 93 10 01 	sts	0x0110, r24
    1542:	21 e0       	ldi	r18, 0x01	; 1
    1544:	30 e0       	ldi	r19, 0x00	; 0
    1546:	41 e0       	ldi	r20, 0x01	; 1
    1548:	b2 cf       	rjmp	.-156    	; 0x14ae <rotary_checkStatus+0x1e>
	} 
	
	if (ROTB & ROTA & (wait)) {
		rotarystatus = 2;
		wait = 2;
	} else if(ROTA & (!ROTB) & wait) {
    154a:	50 b1       	in	r21, 0x00	; 0
    154c:	80 b1       	in	r24, 0x00	; 0
    154e:	91 e0       	ldi	r25, 0x01	; 1
    1550:	85 ff       	sbrs	r24, 5
    1552:	22 c0       	rjmp	.+68     	; 0x1598 <rotary_checkStatus+0x108>
    1554:	81 e0       	ldi	r24, 0x01	; 1
    1556:	54 fd       	sbrc	r21, 4
    1558:	17 c0       	rjmp	.+46     	; 0x1588 <rotary_checkStatus+0xf8>
    155a:	89 23       	and	r24, r25
    155c:	90 e0       	ldi	r25, 0x00	; 0
    155e:	82 23       	and	r24, r18
    1560:	93 23       	and	r25, r19
    1562:	00 97       	sbiw	r24, 0x00	; 0
    1564:	49 f0       	breq	.+18     	; 0x1578 <rotary_checkStatus+0xe8>
		rotarystatus = 1;
    1566:	81 e0       	ldi	r24, 0x01	; 1
    1568:	80 93 11 01 	sts	0x0111, r24
		wait = 2;	
    156c:	82 e0       	ldi	r24, 0x02	; 2
    156e:	80 93 10 01 	sts	0x0110, r24
    1572:	21 e0       	ldi	r18, 0x01	; 1
    1574:	30 e0       	ldi	r19, 0x00	; 0
    1576:	b1 cf       	rjmp	.-158    	; 0x14da <rotary_checkStatus+0x4a>
	} 
	
	if (ROTB & ROTA & (wait)) {
		rotarystatus = 2;
		wait = 2;
	} else if(ROTA & (!ROTB) & wait) {
    1578:	21 e0       	ldi	r18, 0x01	; 1
    157a:	30 e0       	ldi	r19, 0x00	; 0
    157c:	42 30       	cpi	r20, 0x02	; 2
    157e:	09 f4       	brne	.+2      	; 0x1582 <rotary_checkStatus+0xf2>
    1580:	ac cf       	rjmp	.-168    	; 0x14da <rotary_checkStatus+0x4a>
    1582:	20 e0       	ldi	r18, 0x00	; 0
    1584:	30 e0       	ldi	r19, 0x00	; 0
    1586:	a9 cf       	rjmp	.-174    	; 0x14da <rotary_checkStatus+0x4a>
    1588:	80 e0       	ldi	r24, 0x00	; 0
    158a:	89 23       	and	r24, r25
    158c:	90 e0       	ldi	r25, 0x00	; 0
    158e:	82 23       	and	r24, r18
    1590:	93 23       	and	r25, r19
    1592:	00 97       	sbiw	r24, 0x00	; 0
    1594:	41 f7       	brne	.-48     	; 0x1566 <rotary_checkStatus+0xd6>
    1596:	f0 cf       	rjmp	.-32     	; 0x1578 <rotary_checkStatus+0xe8>
    1598:	90 e0       	ldi	r25, 0x00	; 0
    159a:	81 e0       	ldi	r24, 0x01	; 1
    159c:	54 ff       	sbrs	r21, 4
    159e:	dd cf       	rjmp	.-70     	; 0x155a <rotary_checkStatus+0xca>
    15a0:	f3 cf       	rjmp	.-26     	; 0x1588 <rotary_checkStatus+0xf8>

000015a2 <rotary_getStatus>:
/*																		*/
/* 1 = turned left, 2 = turned right, 4 = centre button.				*/
/************************************************************************/
uint8_t rotary_getStatus(void) {
	return rotarystatus;
}
    15a2:	80 91 11 01 	lds	r24, 0x0111
    15a6:	08 95       	ret

000015a8 <rotary_resetStatus>:

/************************************************************************/
/* Reset the rotary encoder status.										*/
/************************************************************************/
void rotary_resetStatus(void) {
	rotarystatus=0;
    15a8:	10 92 11 01 	sts	0x0111, r1
}
    15ac:	08 95       	ret

000015ae <__vector_18>:

/************************************************************************/
/* ISR for rotary encoder reads											*/
/************************************************************************/
ISR(TIMER0_OVF_vect, ISR_BLOCK) {
    15ae:	1f 92       	push	r1
    15b0:	0f 92       	push	r0
    15b2:	0f b6       	in	r0, 0x3f	; 63
    15b4:	0f 92       	push	r0
    15b6:	11 24       	eor	r1, r1
    15b8:	2f 93       	push	r18
    15ba:	3f 93       	push	r19
    15bc:	4f 93       	push	r20
    15be:	5f 93       	push	r21
    15c0:	6f 93       	push	r22
    15c2:	7f 93       	push	r23
    15c4:	8f 93       	push	r24
    15c6:	9f 93       	push	r25
    15c8:	af 93       	push	r26
    15ca:	bf 93       	push	r27
    15cc:	ef 93       	push	r30
    15ce:	ff 93       	push	r31
	// Check rotary encoder status.
	rotary_checkStatus();
    15d0:	0e 94 48 0a 	call	0x1490	; 0x1490 <rotary_checkStatus>
    15d4:	ff 91       	pop	r31
    15d6:	ef 91       	pop	r30
    15d8:	bf 91       	pop	r27
    15da:	af 91       	pop	r26
    15dc:	9f 91       	pop	r25
    15de:	8f 91       	pop	r24
    15e0:	7f 91       	pop	r23
    15e2:	6f 91       	pop	r22
    15e4:	5f 91       	pop	r21
    15e6:	4f 91       	pop	r20
    15e8:	3f 91       	pop	r19
    15ea:	2f 91       	pop	r18
    15ec:	0f 90       	pop	r0
    15ee:	0f be       	out	0x3f, r0	; 63
    15f0:	0f 90       	pop	r0
    15f2:	1f 90       	pop	r1
    15f4:	18 95       	reti

000015f6 <main>:
/************************************************************************/
/* Main routine															*/
/************************************************************************/

int main(void) {
	InitIOPorts();
    15f6:	0e 94 78 09 	call	0x12f0	; 0x12f0 <InitIOPorts>
    15fa:	0a e6       	ldi	r16, 0x6A	; 106
    15fc:	19 e0       	ldi	r17, 0x09	; 9
    15fe:	c0 e0       	ldi	r28, 0x00	; 0
    1600:	d1 e0       	ldi	r29, 0x01	; 1
	
    while(1) {
		updateCaseTemp();
    1602:	f8 01       	movw	r30, r16
    1604:	09 95       	icall
		printf("Case Temp: %f\n", temp_case);
    1606:	00 d0       	rcall	.+0      	; 0x1608 <main+0x12>
    1608:	00 d0       	rcall	.+0      	; 0x160a <main+0x14>
    160a:	00 d0       	rcall	.+0      	; 0x160c <main+0x16>
    160c:	ad b7       	in	r26, 0x3d	; 61
    160e:	be b7       	in	r27, 0x3e	; 62
    1610:	12 96       	adiw	r26, 0x02	; 2
    1612:	dc 93       	st	X, r29
    1614:	ce 93       	st	-X, r28
    1616:	11 97       	sbiw	r26, 0x01	; 1
    1618:	80 91 12 01 	lds	r24, 0x0112
    161c:	90 91 13 01 	lds	r25, 0x0113
    1620:	a0 91 14 01 	lds	r26, 0x0114
    1624:	b0 91 15 01 	lds	r27, 0x0115
    1628:	ed b7       	in	r30, 0x3d	; 61
    162a:	fe b7       	in	r31, 0x3e	; 62
    162c:	83 83       	std	Z+3, r24	; 0x03
    162e:	94 83       	std	Z+4, r25	; 0x04
    1630:	a5 83       	std	Z+5, r26	; 0x05
    1632:	b6 83       	std	Z+6, r27	; 0x06
    1634:	0e 94 3f 0d 	call	0x1a7e	; 0x1a7e <printf>
	#else
		//round up by default
		__ticks_dc = (uint32_t)(ceil(fabs(__tmp)));
	#endif

	__builtin_avr_delay_cycles(__ticks_dc);
    1638:	8f e7       	ldi	r24, 0x7F	; 127
    163a:	9a e1       	ldi	r25, 0x1A	; 26
    163c:	a6 e0       	ldi	r26, 0x06	; 6
    163e:	81 50       	subi	r24, 0x01	; 1
    1640:	90 40       	sbci	r25, 0x00	; 0
    1642:	a0 40       	sbci	r26, 0x00	; 0
    1644:	e1 f7       	brne	.-8      	; 0x163e <main+0x48>
    1646:	00 c0       	rjmp	.+0      	; 0x1648 <main+0x52>
    1648:	00 00       	nop
    164a:	ad b7       	in	r26, 0x3d	; 61
    164c:	be b7       	in	r27, 0x3e	; 62
    164e:	16 96       	adiw	r26, 0x06	; 6
    1650:	0f b6       	in	r0, 0x3f	; 63
    1652:	f8 94       	cli
    1654:	be bf       	out	0x3e, r27	; 62
    1656:	0f be       	out	0x3f, r0	; 63
    1658:	ad bf       	out	0x3d, r26	; 61
    165a:	d3 cf       	rjmp	.-90     	; 0x1602 <main+0xc>

0000165c <__subsf3>:
    165c:	50 58       	subi	r21, 0x80	; 128

0000165e <__addsf3>:
    165e:	bb 27       	eor	r27, r27
    1660:	aa 27       	eor	r26, r26
    1662:	0e d0       	rcall	.+28     	; 0x1680 <__addsf3x>
    1664:	58 c1       	rjmp	.+688    	; 0x1916 <__fp_round>
    1666:	49 d1       	rcall	.+658    	; 0x18fa <__fp_pscA>
    1668:	30 f0       	brcs	.+12     	; 0x1676 <__addsf3+0x18>
    166a:	4e d1       	rcall	.+668    	; 0x1908 <__fp_pscB>
    166c:	20 f0       	brcs	.+8      	; 0x1676 <__addsf3+0x18>
    166e:	31 f4       	brne	.+12     	; 0x167c <__addsf3+0x1e>
    1670:	9f 3f       	cpi	r25, 0xFF	; 255
    1672:	11 f4       	brne	.+4      	; 0x1678 <__addsf3+0x1a>
    1674:	1e f4       	brtc	.+6      	; 0x167c <__addsf3+0x1e>
    1676:	3e c1       	rjmp	.+636    	; 0x18f4 <__fp_nan>
    1678:	0e f4       	brtc	.+2      	; 0x167c <__addsf3+0x1e>
    167a:	e0 95       	com	r30
    167c:	e7 fb       	bst	r30, 7
    167e:	0b c1       	rjmp	.+534    	; 0x1896 <__fp_inf>

00001680 <__addsf3x>:
    1680:	e9 2f       	mov	r30, r25
    1682:	5a d1       	rcall	.+692    	; 0x1938 <__fp_split3>
    1684:	80 f3       	brcs	.-32     	; 0x1666 <__addsf3+0x8>
    1686:	ba 17       	cp	r27, r26
    1688:	62 07       	cpc	r22, r18
    168a:	73 07       	cpc	r23, r19
    168c:	84 07       	cpc	r24, r20
    168e:	95 07       	cpc	r25, r21
    1690:	18 f0       	brcs	.+6      	; 0x1698 <__addsf3x+0x18>
    1692:	71 f4       	brne	.+28     	; 0x16b0 <__addsf3x+0x30>
    1694:	9e f5       	brtc	.+102    	; 0x16fc <__addsf3x+0x7c>
    1696:	89 c1       	rjmp	.+786    	; 0x19aa <__fp_zero>
    1698:	0e f4       	brtc	.+2      	; 0x169c <__addsf3x+0x1c>
    169a:	e0 95       	com	r30
    169c:	0b 2e       	mov	r0, r27
    169e:	ba 2f       	mov	r27, r26
    16a0:	a0 2d       	mov	r26, r0
    16a2:	0b 01       	movw	r0, r22
    16a4:	b9 01       	movw	r22, r18
    16a6:	90 01       	movw	r18, r0
    16a8:	0c 01       	movw	r0, r24
    16aa:	ca 01       	movw	r24, r20
    16ac:	a0 01       	movw	r20, r0
    16ae:	11 24       	eor	r1, r1
    16b0:	ff 27       	eor	r31, r31
    16b2:	59 1b       	sub	r21, r25
    16b4:	99 f0       	breq	.+38     	; 0x16dc <__addsf3x+0x5c>
    16b6:	59 3f       	cpi	r21, 0xF9	; 249
    16b8:	50 f4       	brcc	.+20     	; 0x16ce <__addsf3x+0x4e>
    16ba:	50 3e       	cpi	r21, 0xE0	; 224
    16bc:	68 f1       	brcs	.+90     	; 0x1718 <__addsf3x+0x98>
    16be:	1a 16       	cp	r1, r26
    16c0:	f0 40       	sbci	r31, 0x00	; 0
    16c2:	a2 2f       	mov	r26, r18
    16c4:	23 2f       	mov	r18, r19
    16c6:	34 2f       	mov	r19, r20
    16c8:	44 27       	eor	r20, r20
    16ca:	58 5f       	subi	r21, 0xF8	; 248
    16cc:	f3 cf       	rjmp	.-26     	; 0x16b4 <__addsf3x+0x34>
    16ce:	46 95       	lsr	r20
    16d0:	37 95       	ror	r19
    16d2:	27 95       	ror	r18
    16d4:	a7 95       	ror	r26
    16d6:	f0 40       	sbci	r31, 0x00	; 0
    16d8:	53 95       	inc	r21
    16da:	c9 f7       	brne	.-14     	; 0x16ce <__addsf3x+0x4e>
    16dc:	7e f4       	brtc	.+30     	; 0x16fc <__addsf3x+0x7c>
    16de:	1f 16       	cp	r1, r31
    16e0:	ba 0b       	sbc	r27, r26
    16e2:	62 0b       	sbc	r22, r18
    16e4:	73 0b       	sbc	r23, r19
    16e6:	84 0b       	sbc	r24, r20
    16e8:	ba f0       	brmi	.+46     	; 0x1718 <__addsf3x+0x98>
    16ea:	91 50       	subi	r25, 0x01	; 1
    16ec:	a1 f0       	breq	.+40     	; 0x1716 <__addsf3x+0x96>
    16ee:	ff 0f       	add	r31, r31
    16f0:	bb 1f       	adc	r27, r27
    16f2:	66 1f       	adc	r22, r22
    16f4:	77 1f       	adc	r23, r23
    16f6:	88 1f       	adc	r24, r24
    16f8:	c2 f7       	brpl	.-16     	; 0x16ea <__addsf3x+0x6a>
    16fa:	0e c0       	rjmp	.+28     	; 0x1718 <__addsf3x+0x98>
    16fc:	ba 0f       	add	r27, r26
    16fe:	62 1f       	adc	r22, r18
    1700:	73 1f       	adc	r23, r19
    1702:	84 1f       	adc	r24, r20
    1704:	48 f4       	brcc	.+18     	; 0x1718 <__addsf3x+0x98>
    1706:	87 95       	ror	r24
    1708:	77 95       	ror	r23
    170a:	67 95       	ror	r22
    170c:	b7 95       	ror	r27
    170e:	f7 95       	ror	r31
    1710:	9e 3f       	cpi	r25, 0xFE	; 254
    1712:	08 f0       	brcs	.+2      	; 0x1716 <__addsf3x+0x96>
    1714:	b3 cf       	rjmp	.-154    	; 0x167c <__addsf3+0x1e>
    1716:	93 95       	inc	r25
    1718:	88 0f       	add	r24, r24
    171a:	08 f0       	brcs	.+2      	; 0x171e <__addsf3x+0x9e>
    171c:	99 27       	eor	r25, r25
    171e:	ee 0f       	add	r30, r30
    1720:	97 95       	ror	r25
    1722:	87 95       	ror	r24
    1724:	08 95       	ret

00001726 <__divsf3>:
    1726:	0c d0       	rcall	.+24     	; 0x1740 <__divsf3x>
    1728:	f6 c0       	rjmp	.+492    	; 0x1916 <__fp_round>
    172a:	ee d0       	rcall	.+476    	; 0x1908 <__fp_pscB>
    172c:	40 f0       	brcs	.+16     	; 0x173e <__divsf3+0x18>
    172e:	e5 d0       	rcall	.+458    	; 0x18fa <__fp_pscA>
    1730:	30 f0       	brcs	.+12     	; 0x173e <__divsf3+0x18>
    1732:	21 f4       	brne	.+8      	; 0x173c <__divsf3+0x16>
    1734:	5f 3f       	cpi	r21, 0xFF	; 255
    1736:	19 f0       	breq	.+6      	; 0x173e <__divsf3+0x18>
    1738:	ae c0       	rjmp	.+348    	; 0x1896 <__fp_inf>
    173a:	51 11       	cpse	r21, r1
    173c:	37 c1       	rjmp	.+622    	; 0x19ac <__fp_szero>
    173e:	da c0       	rjmp	.+436    	; 0x18f4 <__fp_nan>

00001740 <__divsf3x>:
    1740:	fb d0       	rcall	.+502    	; 0x1938 <__fp_split3>
    1742:	98 f3       	brcs	.-26     	; 0x172a <__divsf3+0x4>

00001744 <__divsf3_pse>:
    1744:	99 23       	and	r25, r25
    1746:	c9 f3       	breq	.-14     	; 0x173a <__divsf3+0x14>
    1748:	55 23       	and	r21, r21
    174a:	b1 f3       	breq	.-20     	; 0x1738 <__divsf3+0x12>
    174c:	95 1b       	sub	r25, r21
    174e:	55 0b       	sbc	r21, r21
    1750:	bb 27       	eor	r27, r27
    1752:	aa 27       	eor	r26, r26
    1754:	62 17       	cp	r22, r18
    1756:	73 07       	cpc	r23, r19
    1758:	84 07       	cpc	r24, r20
    175a:	38 f0       	brcs	.+14     	; 0x176a <__divsf3_pse+0x26>
    175c:	9f 5f       	subi	r25, 0xFF	; 255
    175e:	5f 4f       	sbci	r21, 0xFF	; 255
    1760:	22 0f       	add	r18, r18
    1762:	33 1f       	adc	r19, r19
    1764:	44 1f       	adc	r20, r20
    1766:	aa 1f       	adc	r26, r26
    1768:	a9 f3       	breq	.-22     	; 0x1754 <__divsf3_pse+0x10>
    176a:	33 d0       	rcall	.+102    	; 0x17d2 <__divsf3_pse+0x8e>
    176c:	0e 2e       	mov	r0, r30
    176e:	3a f0       	brmi	.+14     	; 0x177e <__divsf3_pse+0x3a>
    1770:	e0 e8       	ldi	r30, 0x80	; 128
    1772:	30 d0       	rcall	.+96     	; 0x17d4 <__divsf3_pse+0x90>
    1774:	91 50       	subi	r25, 0x01	; 1
    1776:	50 40       	sbci	r21, 0x00	; 0
    1778:	e6 95       	lsr	r30
    177a:	00 1c       	adc	r0, r0
    177c:	ca f7       	brpl	.-14     	; 0x1770 <__divsf3_pse+0x2c>
    177e:	29 d0       	rcall	.+82     	; 0x17d2 <__divsf3_pse+0x8e>
    1780:	fe 2f       	mov	r31, r30
    1782:	27 d0       	rcall	.+78     	; 0x17d2 <__divsf3_pse+0x8e>
    1784:	66 0f       	add	r22, r22
    1786:	77 1f       	adc	r23, r23
    1788:	88 1f       	adc	r24, r24
    178a:	bb 1f       	adc	r27, r27
    178c:	26 17       	cp	r18, r22
    178e:	37 07       	cpc	r19, r23
    1790:	48 07       	cpc	r20, r24
    1792:	ab 07       	cpc	r26, r27
    1794:	b0 e8       	ldi	r27, 0x80	; 128
    1796:	09 f0       	breq	.+2      	; 0x179a <__divsf3_pse+0x56>
    1798:	bb 0b       	sbc	r27, r27
    179a:	80 2d       	mov	r24, r0
    179c:	bf 01       	movw	r22, r30
    179e:	ff 27       	eor	r31, r31
    17a0:	93 58       	subi	r25, 0x83	; 131
    17a2:	5f 4f       	sbci	r21, 0xFF	; 255
    17a4:	2a f0       	brmi	.+10     	; 0x17b0 <__divsf3_pse+0x6c>
    17a6:	9e 3f       	cpi	r25, 0xFE	; 254
    17a8:	51 05       	cpc	r21, r1
    17aa:	68 f0       	brcs	.+26     	; 0x17c6 <__divsf3_pse+0x82>
    17ac:	74 c0       	rjmp	.+232    	; 0x1896 <__fp_inf>
    17ae:	fe c0       	rjmp	.+508    	; 0x19ac <__fp_szero>
    17b0:	5f 3f       	cpi	r21, 0xFF	; 255
    17b2:	ec f3       	brlt	.-6      	; 0x17ae <__divsf3_pse+0x6a>
    17b4:	98 3e       	cpi	r25, 0xE8	; 232
    17b6:	dc f3       	brlt	.-10     	; 0x17ae <__divsf3_pse+0x6a>
    17b8:	86 95       	lsr	r24
    17ba:	77 95       	ror	r23
    17bc:	67 95       	ror	r22
    17be:	b7 95       	ror	r27
    17c0:	f7 95       	ror	r31
    17c2:	9f 5f       	subi	r25, 0xFF	; 255
    17c4:	c9 f7       	brne	.-14     	; 0x17b8 <__divsf3_pse+0x74>
    17c6:	88 0f       	add	r24, r24
    17c8:	91 1d       	adc	r25, r1
    17ca:	96 95       	lsr	r25
    17cc:	87 95       	ror	r24
    17ce:	97 f9       	bld	r25, 7
    17d0:	08 95       	ret
    17d2:	e1 e0       	ldi	r30, 0x01	; 1
    17d4:	66 0f       	add	r22, r22
    17d6:	77 1f       	adc	r23, r23
    17d8:	88 1f       	adc	r24, r24
    17da:	bb 1f       	adc	r27, r27
    17dc:	62 17       	cp	r22, r18
    17de:	73 07       	cpc	r23, r19
    17e0:	84 07       	cpc	r24, r20
    17e2:	ba 07       	cpc	r27, r26
    17e4:	20 f0       	brcs	.+8      	; 0x17ee <__divsf3_pse+0xaa>
    17e6:	62 1b       	sub	r22, r18
    17e8:	73 0b       	sbc	r23, r19
    17ea:	84 0b       	sbc	r24, r20
    17ec:	ba 0b       	sbc	r27, r26
    17ee:	ee 1f       	adc	r30, r30
    17f0:	88 f7       	brcc	.-30     	; 0x17d4 <__divsf3_pse+0x90>
    17f2:	e0 95       	com	r30
    17f4:	08 95       	ret

000017f6 <__floatunsisf>:
    17f6:	e8 94       	clt
    17f8:	09 c0       	rjmp	.+18     	; 0x180c <__floatsisf+0x12>

000017fa <__floatsisf>:
    17fa:	97 fb       	bst	r25, 7
    17fc:	3e f4       	brtc	.+14     	; 0x180c <__floatsisf+0x12>
    17fe:	90 95       	com	r25
    1800:	80 95       	com	r24
    1802:	70 95       	com	r23
    1804:	61 95       	neg	r22
    1806:	7f 4f       	sbci	r23, 0xFF	; 255
    1808:	8f 4f       	sbci	r24, 0xFF	; 255
    180a:	9f 4f       	sbci	r25, 0xFF	; 255
    180c:	99 23       	and	r25, r25
    180e:	a9 f0       	breq	.+42     	; 0x183a <__floatsisf+0x40>
    1810:	f9 2f       	mov	r31, r25
    1812:	96 e9       	ldi	r25, 0x96	; 150
    1814:	bb 27       	eor	r27, r27
    1816:	93 95       	inc	r25
    1818:	f6 95       	lsr	r31
    181a:	87 95       	ror	r24
    181c:	77 95       	ror	r23
    181e:	67 95       	ror	r22
    1820:	b7 95       	ror	r27
    1822:	f1 11       	cpse	r31, r1
    1824:	f8 cf       	rjmp	.-16     	; 0x1816 <__floatsisf+0x1c>
    1826:	fa f4       	brpl	.+62     	; 0x1866 <__floatsisf+0x6c>
    1828:	bb 0f       	add	r27, r27
    182a:	11 f4       	brne	.+4      	; 0x1830 <__floatsisf+0x36>
    182c:	60 ff       	sbrs	r22, 0
    182e:	1b c0       	rjmp	.+54     	; 0x1866 <__floatsisf+0x6c>
    1830:	6f 5f       	subi	r22, 0xFF	; 255
    1832:	7f 4f       	sbci	r23, 0xFF	; 255
    1834:	8f 4f       	sbci	r24, 0xFF	; 255
    1836:	9f 4f       	sbci	r25, 0xFF	; 255
    1838:	16 c0       	rjmp	.+44     	; 0x1866 <__floatsisf+0x6c>
    183a:	88 23       	and	r24, r24
    183c:	11 f0       	breq	.+4      	; 0x1842 <__floatsisf+0x48>
    183e:	96 e9       	ldi	r25, 0x96	; 150
    1840:	11 c0       	rjmp	.+34     	; 0x1864 <__floatsisf+0x6a>
    1842:	77 23       	and	r23, r23
    1844:	21 f0       	breq	.+8      	; 0x184e <__floatsisf+0x54>
    1846:	9e e8       	ldi	r25, 0x8E	; 142
    1848:	87 2f       	mov	r24, r23
    184a:	76 2f       	mov	r23, r22
    184c:	05 c0       	rjmp	.+10     	; 0x1858 <__floatsisf+0x5e>
    184e:	66 23       	and	r22, r22
    1850:	71 f0       	breq	.+28     	; 0x186e <__floatsisf+0x74>
    1852:	96 e8       	ldi	r25, 0x86	; 134
    1854:	86 2f       	mov	r24, r22
    1856:	70 e0       	ldi	r23, 0x00	; 0
    1858:	60 e0       	ldi	r22, 0x00	; 0
    185a:	2a f0       	brmi	.+10     	; 0x1866 <__floatsisf+0x6c>
    185c:	9a 95       	dec	r25
    185e:	66 0f       	add	r22, r22
    1860:	77 1f       	adc	r23, r23
    1862:	88 1f       	adc	r24, r24
    1864:	da f7       	brpl	.-10     	; 0x185c <__floatsisf+0x62>
    1866:	88 0f       	add	r24, r24
    1868:	96 95       	lsr	r25
    186a:	87 95       	ror	r24
    186c:	97 f9       	bld	r25, 7
    186e:	08 95       	ret

00001870 <floor>:
    1870:	85 d0       	rcall	.+266    	; 0x197c <__fp_trunc>
    1872:	80 f0       	brcs	.+32     	; 0x1894 <floor+0x24>
    1874:	9f 37       	cpi	r25, 0x7F	; 127
    1876:	40 f4       	brcc	.+16     	; 0x1888 <floor+0x18>
    1878:	91 11       	cpse	r25, r1
    187a:	0e f0       	brts	.+2      	; 0x187e <floor+0xe>
    187c:	97 c0       	rjmp	.+302    	; 0x19ac <__fp_szero>
    187e:	60 e0       	ldi	r22, 0x00	; 0
    1880:	70 e0       	ldi	r23, 0x00	; 0
    1882:	80 e8       	ldi	r24, 0x80	; 128
    1884:	9f eb       	ldi	r25, 0xBF	; 191
    1886:	08 95       	ret
    1888:	26 f4       	brtc	.+8      	; 0x1892 <floor+0x22>
    188a:	1b 16       	cp	r1, r27
    188c:	61 1d       	adc	r22, r1
    188e:	71 1d       	adc	r23, r1
    1890:	81 1d       	adc	r24, r1
    1892:	07 c0       	rjmp	.+14     	; 0x18a2 <__fp_mintl>
    1894:	21 c0       	rjmp	.+66     	; 0x18d8 <__fp_mpack>

00001896 <__fp_inf>:
    1896:	97 f9       	bld	r25, 7
    1898:	9f 67       	ori	r25, 0x7F	; 127
    189a:	80 e8       	ldi	r24, 0x80	; 128
    189c:	70 e0       	ldi	r23, 0x00	; 0
    189e:	60 e0       	ldi	r22, 0x00	; 0
    18a0:	08 95       	ret

000018a2 <__fp_mintl>:
    18a2:	88 23       	and	r24, r24
    18a4:	71 f4       	brne	.+28     	; 0x18c2 <__fp_mintl+0x20>
    18a6:	77 23       	and	r23, r23
    18a8:	21 f0       	breq	.+8      	; 0x18b2 <__fp_mintl+0x10>
    18aa:	98 50       	subi	r25, 0x08	; 8
    18ac:	87 2b       	or	r24, r23
    18ae:	76 2f       	mov	r23, r22
    18b0:	07 c0       	rjmp	.+14     	; 0x18c0 <__fp_mintl+0x1e>
    18b2:	66 23       	and	r22, r22
    18b4:	11 f4       	brne	.+4      	; 0x18ba <__fp_mintl+0x18>
    18b6:	99 27       	eor	r25, r25
    18b8:	0d c0       	rjmp	.+26     	; 0x18d4 <__fp_mintl+0x32>
    18ba:	90 51       	subi	r25, 0x10	; 16
    18bc:	86 2b       	or	r24, r22
    18be:	70 e0       	ldi	r23, 0x00	; 0
    18c0:	60 e0       	ldi	r22, 0x00	; 0
    18c2:	2a f0       	brmi	.+10     	; 0x18ce <__fp_mintl+0x2c>
    18c4:	9a 95       	dec	r25
    18c6:	66 0f       	add	r22, r22
    18c8:	77 1f       	adc	r23, r23
    18ca:	88 1f       	adc	r24, r24
    18cc:	da f7       	brpl	.-10     	; 0x18c4 <__fp_mintl+0x22>
    18ce:	88 0f       	add	r24, r24
    18d0:	96 95       	lsr	r25
    18d2:	87 95       	ror	r24
    18d4:	97 f9       	bld	r25, 7
    18d6:	08 95       	ret

000018d8 <__fp_mpack>:
    18d8:	9f 3f       	cpi	r25, 0xFF	; 255
    18da:	31 f0       	breq	.+12     	; 0x18e8 <__fp_mpack_finite+0xc>

000018dc <__fp_mpack_finite>:
    18dc:	91 50       	subi	r25, 0x01	; 1
    18de:	20 f4       	brcc	.+8      	; 0x18e8 <__fp_mpack_finite+0xc>
    18e0:	87 95       	ror	r24
    18e2:	77 95       	ror	r23
    18e4:	67 95       	ror	r22
    18e6:	b7 95       	ror	r27
    18e8:	88 0f       	add	r24, r24
    18ea:	91 1d       	adc	r25, r1
    18ec:	96 95       	lsr	r25
    18ee:	87 95       	ror	r24
    18f0:	97 f9       	bld	r25, 7
    18f2:	08 95       	ret

000018f4 <__fp_nan>:
    18f4:	9f ef       	ldi	r25, 0xFF	; 255
    18f6:	80 ec       	ldi	r24, 0xC0	; 192
    18f8:	08 95       	ret

000018fa <__fp_pscA>:
    18fa:	00 24       	eor	r0, r0
    18fc:	0a 94       	dec	r0
    18fe:	16 16       	cp	r1, r22
    1900:	17 06       	cpc	r1, r23
    1902:	18 06       	cpc	r1, r24
    1904:	09 06       	cpc	r0, r25
    1906:	08 95       	ret

00001908 <__fp_pscB>:
    1908:	00 24       	eor	r0, r0
    190a:	0a 94       	dec	r0
    190c:	12 16       	cp	r1, r18
    190e:	13 06       	cpc	r1, r19
    1910:	14 06       	cpc	r1, r20
    1912:	05 06       	cpc	r0, r21
    1914:	08 95       	ret

00001916 <__fp_round>:
    1916:	09 2e       	mov	r0, r25
    1918:	03 94       	inc	r0
    191a:	00 0c       	add	r0, r0
    191c:	11 f4       	brne	.+4      	; 0x1922 <__fp_round+0xc>
    191e:	88 23       	and	r24, r24
    1920:	52 f0       	brmi	.+20     	; 0x1936 <__fp_round+0x20>
    1922:	bb 0f       	add	r27, r27
    1924:	40 f4       	brcc	.+16     	; 0x1936 <__fp_round+0x20>
    1926:	bf 2b       	or	r27, r31
    1928:	11 f4       	brne	.+4      	; 0x192e <__fp_round+0x18>
    192a:	60 ff       	sbrs	r22, 0
    192c:	04 c0       	rjmp	.+8      	; 0x1936 <__fp_round+0x20>
    192e:	6f 5f       	subi	r22, 0xFF	; 255
    1930:	7f 4f       	sbci	r23, 0xFF	; 255
    1932:	8f 4f       	sbci	r24, 0xFF	; 255
    1934:	9f 4f       	sbci	r25, 0xFF	; 255
    1936:	08 95       	ret

00001938 <__fp_split3>:
    1938:	57 fd       	sbrc	r21, 7
    193a:	90 58       	subi	r25, 0x80	; 128
    193c:	44 0f       	add	r20, r20
    193e:	55 1f       	adc	r21, r21
    1940:	59 f0       	breq	.+22     	; 0x1958 <__fp_splitA+0x10>
    1942:	5f 3f       	cpi	r21, 0xFF	; 255
    1944:	71 f0       	breq	.+28     	; 0x1962 <__fp_splitA+0x1a>
    1946:	47 95       	ror	r20

00001948 <__fp_splitA>:
    1948:	88 0f       	add	r24, r24
    194a:	97 fb       	bst	r25, 7
    194c:	99 1f       	adc	r25, r25
    194e:	61 f0       	breq	.+24     	; 0x1968 <__fp_splitA+0x20>
    1950:	9f 3f       	cpi	r25, 0xFF	; 255
    1952:	79 f0       	breq	.+30     	; 0x1972 <__fp_splitA+0x2a>
    1954:	87 95       	ror	r24
    1956:	08 95       	ret
    1958:	12 16       	cp	r1, r18
    195a:	13 06       	cpc	r1, r19
    195c:	14 06       	cpc	r1, r20
    195e:	55 1f       	adc	r21, r21
    1960:	f2 cf       	rjmp	.-28     	; 0x1946 <__fp_split3+0xe>
    1962:	46 95       	lsr	r20
    1964:	f1 df       	rcall	.-30     	; 0x1948 <__fp_splitA>
    1966:	08 c0       	rjmp	.+16     	; 0x1978 <__fp_splitA+0x30>
    1968:	16 16       	cp	r1, r22
    196a:	17 06       	cpc	r1, r23
    196c:	18 06       	cpc	r1, r24
    196e:	99 1f       	adc	r25, r25
    1970:	f1 cf       	rjmp	.-30     	; 0x1954 <__fp_splitA+0xc>
    1972:	86 95       	lsr	r24
    1974:	71 05       	cpc	r23, r1
    1976:	61 05       	cpc	r22, r1
    1978:	08 94       	sec
    197a:	08 95       	ret

0000197c <__fp_trunc>:
    197c:	e5 df       	rcall	.-54     	; 0x1948 <__fp_splitA>
    197e:	a0 f0       	brcs	.+40     	; 0x19a8 <__fp_trunc+0x2c>
    1980:	be e7       	ldi	r27, 0x7E	; 126
    1982:	b9 17       	cp	r27, r25
    1984:	88 f4       	brcc	.+34     	; 0x19a8 <__fp_trunc+0x2c>
    1986:	bb 27       	eor	r27, r27
    1988:	9f 38       	cpi	r25, 0x8F	; 143
    198a:	60 f4       	brcc	.+24     	; 0x19a4 <__fp_trunc+0x28>
    198c:	16 16       	cp	r1, r22
    198e:	b1 1d       	adc	r27, r1
    1990:	67 2f       	mov	r22, r23
    1992:	78 2f       	mov	r23, r24
    1994:	88 27       	eor	r24, r24
    1996:	98 5f       	subi	r25, 0xF8	; 248
    1998:	f7 cf       	rjmp	.-18     	; 0x1988 <__fp_trunc+0xc>
    199a:	86 95       	lsr	r24
    199c:	77 95       	ror	r23
    199e:	67 95       	ror	r22
    19a0:	b1 1d       	adc	r27, r1
    19a2:	93 95       	inc	r25
    19a4:	96 39       	cpi	r25, 0x96	; 150
    19a6:	c8 f3       	brcs	.-14     	; 0x199a <__fp_trunc+0x1e>
    19a8:	08 95       	ret

000019aa <__fp_zero>:
    19aa:	e8 94       	clt

000019ac <__fp_szero>:
    19ac:	bb 27       	eor	r27, r27
    19ae:	66 27       	eor	r22, r22
    19b0:	77 27       	eor	r23, r23
    19b2:	cb 01       	movw	r24, r22
    19b4:	97 f9       	bld	r25, 7
    19b6:	08 95       	ret

000019b8 <__mulsf3>:
    19b8:	0b d0       	rcall	.+22     	; 0x19d0 <__mulsf3x>
    19ba:	ad cf       	rjmp	.-166    	; 0x1916 <__fp_round>
    19bc:	9e df       	rcall	.-196    	; 0x18fa <__fp_pscA>
    19be:	28 f0       	brcs	.+10     	; 0x19ca <__mulsf3+0x12>
    19c0:	a3 df       	rcall	.-186    	; 0x1908 <__fp_pscB>
    19c2:	18 f0       	brcs	.+6      	; 0x19ca <__mulsf3+0x12>
    19c4:	95 23       	and	r25, r21
    19c6:	09 f0       	breq	.+2      	; 0x19ca <__mulsf3+0x12>
    19c8:	66 cf       	rjmp	.-308    	; 0x1896 <__fp_inf>
    19ca:	94 cf       	rjmp	.-216    	; 0x18f4 <__fp_nan>
    19cc:	11 24       	eor	r1, r1
    19ce:	ee cf       	rjmp	.-36     	; 0x19ac <__fp_szero>

000019d0 <__mulsf3x>:
    19d0:	b3 df       	rcall	.-154    	; 0x1938 <__fp_split3>
    19d2:	a0 f3       	brcs	.-24     	; 0x19bc <__mulsf3+0x4>

000019d4 <__mulsf3_pse>:
    19d4:	95 9f       	mul	r25, r21
    19d6:	d1 f3       	breq	.-12     	; 0x19cc <__mulsf3+0x14>
    19d8:	95 0f       	add	r25, r21
    19da:	50 e0       	ldi	r21, 0x00	; 0
    19dc:	55 1f       	adc	r21, r21
    19de:	62 9f       	mul	r22, r18
    19e0:	f0 01       	movw	r30, r0
    19e2:	72 9f       	mul	r23, r18
    19e4:	bb 27       	eor	r27, r27
    19e6:	f0 0d       	add	r31, r0
    19e8:	b1 1d       	adc	r27, r1
    19ea:	63 9f       	mul	r22, r19
    19ec:	aa 27       	eor	r26, r26
    19ee:	f0 0d       	add	r31, r0
    19f0:	b1 1d       	adc	r27, r1
    19f2:	aa 1f       	adc	r26, r26
    19f4:	64 9f       	mul	r22, r20
    19f6:	66 27       	eor	r22, r22
    19f8:	b0 0d       	add	r27, r0
    19fa:	a1 1d       	adc	r26, r1
    19fc:	66 1f       	adc	r22, r22
    19fe:	82 9f       	mul	r24, r18
    1a00:	22 27       	eor	r18, r18
    1a02:	b0 0d       	add	r27, r0
    1a04:	a1 1d       	adc	r26, r1
    1a06:	62 1f       	adc	r22, r18
    1a08:	73 9f       	mul	r23, r19
    1a0a:	b0 0d       	add	r27, r0
    1a0c:	a1 1d       	adc	r26, r1
    1a0e:	62 1f       	adc	r22, r18
    1a10:	83 9f       	mul	r24, r19
    1a12:	a0 0d       	add	r26, r0
    1a14:	61 1d       	adc	r22, r1
    1a16:	22 1f       	adc	r18, r18
    1a18:	74 9f       	mul	r23, r20
    1a1a:	33 27       	eor	r19, r19
    1a1c:	a0 0d       	add	r26, r0
    1a1e:	61 1d       	adc	r22, r1
    1a20:	23 1f       	adc	r18, r19
    1a22:	84 9f       	mul	r24, r20
    1a24:	60 0d       	add	r22, r0
    1a26:	21 1d       	adc	r18, r1
    1a28:	82 2f       	mov	r24, r18
    1a2a:	76 2f       	mov	r23, r22
    1a2c:	6a 2f       	mov	r22, r26
    1a2e:	11 24       	eor	r1, r1
    1a30:	9f 57       	subi	r25, 0x7F	; 127
    1a32:	50 40       	sbci	r21, 0x00	; 0
    1a34:	8a f0       	brmi	.+34     	; 0x1a58 <__mulsf3_pse+0x84>
    1a36:	e1 f0       	breq	.+56     	; 0x1a70 <__mulsf3_pse+0x9c>
    1a38:	88 23       	and	r24, r24
    1a3a:	4a f0       	brmi	.+18     	; 0x1a4e <__mulsf3_pse+0x7a>
    1a3c:	ee 0f       	add	r30, r30
    1a3e:	ff 1f       	adc	r31, r31
    1a40:	bb 1f       	adc	r27, r27
    1a42:	66 1f       	adc	r22, r22
    1a44:	77 1f       	adc	r23, r23
    1a46:	88 1f       	adc	r24, r24
    1a48:	91 50       	subi	r25, 0x01	; 1
    1a4a:	50 40       	sbci	r21, 0x00	; 0
    1a4c:	a9 f7       	brne	.-22     	; 0x1a38 <__mulsf3_pse+0x64>
    1a4e:	9e 3f       	cpi	r25, 0xFE	; 254
    1a50:	51 05       	cpc	r21, r1
    1a52:	70 f0       	brcs	.+28     	; 0x1a70 <__mulsf3_pse+0x9c>
    1a54:	20 cf       	rjmp	.-448    	; 0x1896 <__fp_inf>
    1a56:	aa cf       	rjmp	.-172    	; 0x19ac <__fp_szero>
    1a58:	5f 3f       	cpi	r21, 0xFF	; 255
    1a5a:	ec f3       	brlt	.-6      	; 0x1a56 <__mulsf3_pse+0x82>
    1a5c:	98 3e       	cpi	r25, 0xE8	; 232
    1a5e:	dc f3       	brlt	.-10     	; 0x1a56 <__mulsf3_pse+0x82>
    1a60:	86 95       	lsr	r24
    1a62:	77 95       	ror	r23
    1a64:	67 95       	ror	r22
    1a66:	b7 95       	ror	r27
    1a68:	f7 95       	ror	r31
    1a6a:	e7 95       	ror	r30
    1a6c:	9f 5f       	subi	r25, 0xFF	; 255
    1a6e:	c1 f7       	brne	.-16     	; 0x1a60 <__mulsf3_pse+0x8c>
    1a70:	fe 2b       	or	r31, r30
    1a72:	88 0f       	add	r24, r24
    1a74:	91 1d       	adc	r25, r1
    1a76:	96 95       	lsr	r25
    1a78:	87 95       	ror	r24
    1a7a:	97 f9       	bld	r25, 7
    1a7c:	08 95       	ret

00001a7e <printf>:
    1a7e:	a0 e0       	ldi	r26, 0x00	; 0
    1a80:	b0 e0       	ldi	r27, 0x00	; 0
    1a82:	e5 e4       	ldi	r30, 0x45	; 69
    1a84:	fd e0       	ldi	r31, 0x0D	; 13
    1a86:	0c 94 e2 0f 	jmp	0x1fc4	; 0x1fc4 <__prologue_saves__+0x20>
    1a8a:	fe 01       	movw	r30, r28
    1a8c:	35 96       	adiw	r30, 0x05	; 5
    1a8e:	61 91       	ld	r22, Z+
    1a90:	71 91       	ld	r23, Z+
    1a92:	80 91 a1 01 	lds	r24, 0x01A1
    1a96:	90 91 a2 01 	lds	r25, 0x01A2
    1a9a:	af 01       	movw	r20, r30
    1a9c:	0e 94 54 0d 	call	0x1aa8	; 0x1aa8 <vfprintf>
    1aa0:	20 96       	adiw	r28, 0x00	; 0
    1aa2:	e2 e0       	ldi	r30, 0x02	; 2
    1aa4:	0c 94 fe 0f 	jmp	0x1ffc	; 0x1ffc <__epilogue_restores__+0x20>

00001aa8 <vfprintf>:
    1aa8:	ad e0       	ldi	r26, 0x0D	; 13
    1aaa:	b0 e0       	ldi	r27, 0x00	; 0
    1aac:	ea e5       	ldi	r30, 0x5A	; 90
    1aae:	fd e0       	ldi	r31, 0x0D	; 13
    1ab0:	0c 94 d2 0f 	jmp	0x1fa4	; 0x1fa4 <__prologue_saves__>
    1ab4:	3c 01       	movw	r6, r24
    1ab6:	7d 87       	std	Y+13, r23	; 0x0d
    1ab8:	6c 87       	std	Y+12, r22	; 0x0c
    1aba:	5a 01       	movw	r10, r20
    1abc:	fc 01       	movw	r30, r24
    1abe:	17 82       	std	Z+7, r1	; 0x07
    1ac0:	16 82       	std	Z+6, r1	; 0x06
    1ac2:	83 81       	ldd	r24, Z+3	; 0x03
    1ac4:	81 ff       	sbrs	r24, 1
    1ac6:	c8 c1       	rjmp	.+912    	; 0x1e58 <vfprintf+0x3b0>
    1ac8:	2e 01       	movw	r4, r28
    1aca:	08 94       	sec
    1acc:	41 1c       	adc	r4, r1
    1ace:	51 1c       	adc	r5, r1
    1ad0:	f3 01       	movw	r30, r6
    1ad2:	93 81       	ldd	r25, Z+3	; 0x03
    1ad4:	ec 85       	ldd	r30, Y+12	; 0x0c
    1ad6:	fd 85       	ldd	r31, Y+13	; 0x0d
    1ad8:	93 fd       	sbrc	r25, 3
    1ada:	85 91       	lpm	r24, Z+
    1adc:	93 ff       	sbrs	r25, 3
    1ade:	81 91       	ld	r24, Z+
    1ae0:	fd 87       	std	Y+13, r31	; 0x0d
    1ae2:	ec 87       	std	Y+12, r30	; 0x0c
    1ae4:	88 23       	and	r24, r24
    1ae6:	09 f4       	brne	.+2      	; 0x1aea <vfprintf+0x42>
    1ae8:	b3 c1       	rjmp	.+870    	; 0x1e50 <vfprintf+0x3a8>
    1aea:	85 32       	cpi	r24, 0x25	; 37
    1aec:	41 f4       	brne	.+16     	; 0x1afe <vfprintf+0x56>
    1aee:	93 fd       	sbrc	r25, 3
    1af0:	85 91       	lpm	r24, Z+
    1af2:	93 ff       	sbrs	r25, 3
    1af4:	81 91       	ld	r24, Z+
    1af6:	fd 87       	std	Y+13, r31	; 0x0d
    1af8:	ec 87       	std	Y+12, r30	; 0x0c
    1afa:	85 32       	cpi	r24, 0x25	; 37
    1afc:	29 f4       	brne	.+10     	; 0x1b08 <vfprintf+0x60>
    1afe:	90 e0       	ldi	r25, 0x00	; 0
    1b00:	b3 01       	movw	r22, r6
    1b02:	0e 94 48 0f 	call	0x1e90	; 0x1e90 <fputc>
    1b06:	e4 cf       	rjmp	.-56     	; 0x1ad0 <vfprintf+0x28>
    1b08:	ff 24       	eor	r15, r15
    1b0a:	ee 24       	eor	r14, r14
    1b0c:	10 e0       	ldi	r17, 0x00	; 0
    1b0e:	10 32       	cpi	r17, 0x20	; 32
    1b10:	b0 f4       	brcc	.+44     	; 0x1b3e <vfprintf+0x96>
    1b12:	8b 32       	cpi	r24, 0x2B	; 43
    1b14:	69 f0       	breq	.+26     	; 0x1b30 <vfprintf+0x88>
    1b16:	8c 32       	cpi	r24, 0x2C	; 44
    1b18:	28 f4       	brcc	.+10     	; 0x1b24 <vfprintf+0x7c>
    1b1a:	80 32       	cpi	r24, 0x20	; 32
    1b1c:	51 f0       	breq	.+20     	; 0x1b32 <vfprintf+0x8a>
    1b1e:	83 32       	cpi	r24, 0x23	; 35
    1b20:	71 f4       	brne	.+28     	; 0x1b3e <vfprintf+0x96>
    1b22:	0b c0       	rjmp	.+22     	; 0x1b3a <vfprintf+0x92>
    1b24:	8d 32       	cpi	r24, 0x2D	; 45
    1b26:	39 f0       	breq	.+14     	; 0x1b36 <vfprintf+0x8e>
    1b28:	80 33       	cpi	r24, 0x30	; 48
    1b2a:	49 f4       	brne	.+18     	; 0x1b3e <vfprintf+0x96>
    1b2c:	11 60       	ori	r17, 0x01	; 1
    1b2e:	2c c0       	rjmp	.+88     	; 0x1b88 <vfprintf+0xe0>
    1b30:	12 60       	ori	r17, 0x02	; 2
    1b32:	14 60       	ori	r17, 0x04	; 4
    1b34:	29 c0       	rjmp	.+82     	; 0x1b88 <vfprintf+0xe0>
    1b36:	18 60       	ori	r17, 0x08	; 8
    1b38:	27 c0       	rjmp	.+78     	; 0x1b88 <vfprintf+0xe0>
    1b3a:	10 61       	ori	r17, 0x10	; 16
    1b3c:	25 c0       	rjmp	.+74     	; 0x1b88 <vfprintf+0xe0>
    1b3e:	17 fd       	sbrc	r17, 7
    1b40:	2e c0       	rjmp	.+92     	; 0x1b9e <vfprintf+0xf6>
    1b42:	28 2f       	mov	r18, r24
    1b44:	20 53       	subi	r18, 0x30	; 48
    1b46:	2a 30       	cpi	r18, 0x0A	; 10
    1b48:	98 f4       	brcc	.+38     	; 0x1b70 <vfprintf+0xc8>
    1b4a:	16 ff       	sbrs	r17, 6
    1b4c:	08 c0       	rjmp	.+16     	; 0x1b5e <vfprintf+0xb6>
    1b4e:	8f 2d       	mov	r24, r15
    1b50:	88 0f       	add	r24, r24
    1b52:	f8 2e       	mov	r15, r24
    1b54:	ff 0c       	add	r15, r15
    1b56:	ff 0c       	add	r15, r15
    1b58:	f8 0e       	add	r15, r24
    1b5a:	f2 0e       	add	r15, r18
    1b5c:	15 c0       	rjmp	.+42     	; 0x1b88 <vfprintf+0xe0>
    1b5e:	8e 2d       	mov	r24, r14
    1b60:	88 0f       	add	r24, r24
    1b62:	e8 2e       	mov	r14, r24
    1b64:	ee 0c       	add	r14, r14
    1b66:	ee 0c       	add	r14, r14
    1b68:	e8 0e       	add	r14, r24
    1b6a:	e2 0e       	add	r14, r18
    1b6c:	10 62       	ori	r17, 0x20	; 32
    1b6e:	0c c0       	rjmp	.+24     	; 0x1b88 <vfprintf+0xe0>
    1b70:	8e 32       	cpi	r24, 0x2E	; 46
    1b72:	21 f4       	brne	.+8      	; 0x1b7c <vfprintf+0xd4>
    1b74:	16 fd       	sbrc	r17, 6
    1b76:	6c c1       	rjmp	.+728    	; 0x1e50 <vfprintf+0x3a8>
    1b78:	10 64       	ori	r17, 0x40	; 64
    1b7a:	06 c0       	rjmp	.+12     	; 0x1b88 <vfprintf+0xe0>
    1b7c:	8c 36       	cpi	r24, 0x6C	; 108
    1b7e:	11 f4       	brne	.+4      	; 0x1b84 <vfprintf+0xdc>
    1b80:	10 68       	ori	r17, 0x80	; 128
    1b82:	02 c0       	rjmp	.+4      	; 0x1b88 <vfprintf+0xe0>
    1b84:	88 36       	cpi	r24, 0x68	; 104
    1b86:	59 f4       	brne	.+22     	; 0x1b9e <vfprintf+0xf6>
    1b88:	ec 85       	ldd	r30, Y+12	; 0x0c
    1b8a:	fd 85       	ldd	r31, Y+13	; 0x0d
    1b8c:	93 fd       	sbrc	r25, 3
    1b8e:	85 91       	lpm	r24, Z+
    1b90:	93 ff       	sbrs	r25, 3
    1b92:	81 91       	ld	r24, Z+
    1b94:	fd 87       	std	Y+13, r31	; 0x0d
    1b96:	ec 87       	std	Y+12, r30	; 0x0c
    1b98:	88 23       	and	r24, r24
    1b9a:	09 f0       	breq	.+2      	; 0x1b9e <vfprintf+0xf6>
    1b9c:	b8 cf       	rjmp	.-144    	; 0x1b0e <vfprintf+0x66>
    1b9e:	98 2f       	mov	r25, r24
    1ba0:	95 54       	subi	r25, 0x45	; 69
    1ba2:	93 30       	cpi	r25, 0x03	; 3
    1ba4:	18 f0       	brcs	.+6      	; 0x1bac <vfprintf+0x104>
    1ba6:	90 52       	subi	r25, 0x20	; 32
    1ba8:	93 30       	cpi	r25, 0x03	; 3
    1baa:	38 f4       	brcc	.+14     	; 0x1bba <vfprintf+0x112>
    1bac:	24 e0       	ldi	r18, 0x04	; 4
    1bae:	30 e0       	ldi	r19, 0x00	; 0
    1bb0:	a2 0e       	add	r10, r18
    1bb2:	b3 1e       	adc	r11, r19
    1bb4:	3f e3       	ldi	r19, 0x3F	; 63
    1bb6:	39 83       	std	Y+1, r19	; 0x01
    1bb8:	0f c0       	rjmp	.+30     	; 0x1bd8 <vfprintf+0x130>
    1bba:	83 36       	cpi	r24, 0x63	; 99
    1bbc:	31 f0       	breq	.+12     	; 0x1bca <vfprintf+0x122>
    1bbe:	83 37       	cpi	r24, 0x73	; 115
    1bc0:	81 f0       	breq	.+32     	; 0x1be2 <vfprintf+0x13a>
    1bc2:	83 35       	cpi	r24, 0x53	; 83
    1bc4:	09 f0       	breq	.+2      	; 0x1bc8 <vfprintf+0x120>
    1bc6:	5a c0       	rjmp	.+180    	; 0x1c7c <vfprintf+0x1d4>
    1bc8:	22 c0       	rjmp	.+68     	; 0x1c0e <vfprintf+0x166>
    1bca:	f5 01       	movw	r30, r10
    1bcc:	80 81       	ld	r24, Z
    1bce:	89 83       	std	Y+1, r24	; 0x01
    1bd0:	22 e0       	ldi	r18, 0x02	; 2
    1bd2:	30 e0       	ldi	r19, 0x00	; 0
    1bd4:	a2 0e       	add	r10, r18
    1bd6:	b3 1e       	adc	r11, r19
    1bd8:	21 e0       	ldi	r18, 0x01	; 1
    1bda:	c2 2e       	mov	r12, r18
    1bdc:	d1 2c       	mov	r13, r1
    1bde:	42 01       	movw	r8, r4
    1be0:	14 c0       	rjmp	.+40     	; 0x1c0a <vfprintf+0x162>
    1be2:	92 e0       	ldi	r25, 0x02	; 2
    1be4:	29 2e       	mov	r2, r25
    1be6:	31 2c       	mov	r3, r1
    1be8:	2a 0c       	add	r2, r10
    1bea:	3b 1c       	adc	r3, r11
    1bec:	f5 01       	movw	r30, r10
    1bee:	80 80       	ld	r8, Z
    1bf0:	91 80       	ldd	r9, Z+1	; 0x01
    1bf2:	16 ff       	sbrs	r17, 6
    1bf4:	03 c0       	rjmp	.+6      	; 0x1bfc <vfprintf+0x154>
    1bf6:	6f 2d       	mov	r22, r15
    1bf8:	70 e0       	ldi	r23, 0x00	; 0
    1bfa:	02 c0       	rjmp	.+4      	; 0x1c00 <vfprintf+0x158>
    1bfc:	6f ef       	ldi	r22, 0xFF	; 255
    1bfe:	7f ef       	ldi	r23, 0xFF	; 255
    1c00:	c4 01       	movw	r24, r8
    1c02:	0e 94 3d 0f 	call	0x1e7a	; 0x1e7a <strnlen>
    1c06:	6c 01       	movw	r12, r24
    1c08:	51 01       	movw	r10, r2
    1c0a:	1f 77       	andi	r17, 0x7F	; 127
    1c0c:	15 c0       	rjmp	.+42     	; 0x1c38 <vfprintf+0x190>
    1c0e:	82 e0       	ldi	r24, 0x02	; 2
    1c10:	28 2e       	mov	r2, r24
    1c12:	31 2c       	mov	r3, r1
    1c14:	2a 0c       	add	r2, r10
    1c16:	3b 1c       	adc	r3, r11
    1c18:	f5 01       	movw	r30, r10
    1c1a:	80 80       	ld	r8, Z
    1c1c:	91 80       	ldd	r9, Z+1	; 0x01
    1c1e:	16 ff       	sbrs	r17, 6
    1c20:	03 c0       	rjmp	.+6      	; 0x1c28 <vfprintf+0x180>
    1c22:	6f 2d       	mov	r22, r15
    1c24:	70 e0       	ldi	r23, 0x00	; 0
    1c26:	02 c0       	rjmp	.+4      	; 0x1c2c <vfprintf+0x184>
    1c28:	6f ef       	ldi	r22, 0xFF	; 255
    1c2a:	7f ef       	ldi	r23, 0xFF	; 255
    1c2c:	c4 01       	movw	r24, r8
    1c2e:	0e 94 32 0f 	call	0x1e64	; 0x1e64 <strnlen_P>
    1c32:	6c 01       	movw	r12, r24
    1c34:	10 68       	ori	r17, 0x80	; 128
    1c36:	51 01       	movw	r10, r2
    1c38:	13 fd       	sbrc	r17, 3
    1c3a:	1c c0       	rjmp	.+56     	; 0x1c74 <vfprintf+0x1cc>
    1c3c:	06 c0       	rjmp	.+12     	; 0x1c4a <vfprintf+0x1a2>
    1c3e:	80 e2       	ldi	r24, 0x20	; 32
    1c40:	90 e0       	ldi	r25, 0x00	; 0
    1c42:	b3 01       	movw	r22, r6
    1c44:	0e 94 48 0f 	call	0x1e90	; 0x1e90 <fputc>
    1c48:	ea 94       	dec	r14
    1c4a:	8e 2d       	mov	r24, r14
    1c4c:	90 e0       	ldi	r25, 0x00	; 0
    1c4e:	c8 16       	cp	r12, r24
    1c50:	d9 06       	cpc	r13, r25
    1c52:	a8 f3       	brcs	.-22     	; 0x1c3e <vfprintf+0x196>
    1c54:	0f c0       	rjmp	.+30     	; 0x1c74 <vfprintf+0x1cc>
    1c56:	f4 01       	movw	r30, r8
    1c58:	17 fd       	sbrc	r17, 7
    1c5a:	85 91       	lpm	r24, Z+
    1c5c:	17 ff       	sbrs	r17, 7
    1c5e:	81 91       	ld	r24, Z+
    1c60:	4f 01       	movw	r8, r30
    1c62:	90 e0       	ldi	r25, 0x00	; 0
    1c64:	b3 01       	movw	r22, r6
    1c66:	0e 94 48 0f 	call	0x1e90	; 0x1e90 <fputc>
    1c6a:	e1 10       	cpse	r14, r1
    1c6c:	ea 94       	dec	r14
    1c6e:	08 94       	sec
    1c70:	c1 08       	sbc	r12, r1
    1c72:	d1 08       	sbc	r13, r1
    1c74:	c1 14       	cp	r12, r1
    1c76:	d1 04       	cpc	r13, r1
    1c78:	71 f7       	brne	.-36     	; 0x1c56 <vfprintf+0x1ae>
    1c7a:	e7 c0       	rjmp	.+462    	; 0x1e4a <vfprintf+0x3a2>
    1c7c:	84 36       	cpi	r24, 0x64	; 100
    1c7e:	11 f0       	breq	.+4      	; 0x1c84 <vfprintf+0x1dc>
    1c80:	89 36       	cpi	r24, 0x69	; 105
    1c82:	51 f5       	brne	.+84     	; 0x1cd8 <vfprintf+0x230>
    1c84:	f5 01       	movw	r30, r10
    1c86:	17 ff       	sbrs	r17, 7
    1c88:	07 c0       	rjmp	.+14     	; 0x1c98 <vfprintf+0x1f0>
    1c8a:	80 81       	ld	r24, Z
    1c8c:	91 81       	ldd	r25, Z+1	; 0x01
    1c8e:	a2 81       	ldd	r26, Z+2	; 0x02
    1c90:	b3 81       	ldd	r27, Z+3	; 0x03
    1c92:	24 e0       	ldi	r18, 0x04	; 4
    1c94:	30 e0       	ldi	r19, 0x00	; 0
    1c96:	08 c0       	rjmp	.+16     	; 0x1ca8 <vfprintf+0x200>
    1c98:	80 81       	ld	r24, Z
    1c9a:	91 81       	ldd	r25, Z+1	; 0x01
    1c9c:	aa 27       	eor	r26, r26
    1c9e:	97 fd       	sbrc	r25, 7
    1ca0:	a0 95       	com	r26
    1ca2:	ba 2f       	mov	r27, r26
    1ca4:	22 e0       	ldi	r18, 0x02	; 2
    1ca6:	30 e0       	ldi	r19, 0x00	; 0
    1ca8:	a2 0e       	add	r10, r18
    1caa:	b3 1e       	adc	r11, r19
    1cac:	01 2f       	mov	r16, r17
    1cae:	0f 76       	andi	r16, 0x6F	; 111
    1cb0:	b7 ff       	sbrs	r27, 7
    1cb2:	08 c0       	rjmp	.+16     	; 0x1cc4 <vfprintf+0x21c>
    1cb4:	b0 95       	com	r27
    1cb6:	a0 95       	com	r26
    1cb8:	90 95       	com	r25
    1cba:	81 95       	neg	r24
    1cbc:	9f 4f       	sbci	r25, 0xFF	; 255
    1cbe:	af 4f       	sbci	r26, 0xFF	; 255
    1cc0:	bf 4f       	sbci	r27, 0xFF	; 255
    1cc2:	00 68       	ori	r16, 0x80	; 128
    1cc4:	bc 01       	movw	r22, r24
    1cc6:	cd 01       	movw	r24, r26
    1cc8:	a2 01       	movw	r20, r4
    1cca:	2a e0       	ldi	r18, 0x0A	; 10
    1ccc:	30 e0       	ldi	r19, 0x00	; 0
    1cce:	0e 94 74 0f 	call	0x1ee8	; 0x1ee8 <__ultoa_invert>
    1cd2:	d8 2e       	mov	r13, r24
    1cd4:	d4 18       	sub	r13, r4
    1cd6:	3f c0       	rjmp	.+126    	; 0x1d56 <vfprintf+0x2ae>
    1cd8:	85 37       	cpi	r24, 0x75	; 117
    1cda:	21 f4       	brne	.+8      	; 0x1ce4 <vfprintf+0x23c>
    1cdc:	1f 7e       	andi	r17, 0xEF	; 239
    1cde:	2a e0       	ldi	r18, 0x0A	; 10
    1ce0:	30 e0       	ldi	r19, 0x00	; 0
    1ce2:	20 c0       	rjmp	.+64     	; 0x1d24 <vfprintf+0x27c>
    1ce4:	19 7f       	andi	r17, 0xF9	; 249
    1ce6:	8f 36       	cpi	r24, 0x6F	; 111
    1ce8:	a9 f0       	breq	.+42     	; 0x1d14 <vfprintf+0x26c>
    1cea:	80 37       	cpi	r24, 0x70	; 112
    1cec:	20 f4       	brcc	.+8      	; 0x1cf6 <vfprintf+0x24e>
    1cee:	88 35       	cpi	r24, 0x58	; 88
    1cf0:	09 f0       	breq	.+2      	; 0x1cf4 <vfprintf+0x24c>
    1cf2:	ae c0       	rjmp	.+348    	; 0x1e50 <vfprintf+0x3a8>
    1cf4:	0b c0       	rjmp	.+22     	; 0x1d0c <vfprintf+0x264>
    1cf6:	80 37       	cpi	r24, 0x70	; 112
    1cf8:	21 f0       	breq	.+8      	; 0x1d02 <vfprintf+0x25a>
    1cfa:	88 37       	cpi	r24, 0x78	; 120
    1cfc:	09 f0       	breq	.+2      	; 0x1d00 <vfprintf+0x258>
    1cfe:	a8 c0       	rjmp	.+336    	; 0x1e50 <vfprintf+0x3a8>
    1d00:	01 c0       	rjmp	.+2      	; 0x1d04 <vfprintf+0x25c>
    1d02:	10 61       	ori	r17, 0x10	; 16
    1d04:	14 ff       	sbrs	r17, 4
    1d06:	09 c0       	rjmp	.+18     	; 0x1d1a <vfprintf+0x272>
    1d08:	14 60       	ori	r17, 0x04	; 4
    1d0a:	07 c0       	rjmp	.+14     	; 0x1d1a <vfprintf+0x272>
    1d0c:	14 ff       	sbrs	r17, 4
    1d0e:	08 c0       	rjmp	.+16     	; 0x1d20 <vfprintf+0x278>
    1d10:	16 60       	ori	r17, 0x06	; 6
    1d12:	06 c0       	rjmp	.+12     	; 0x1d20 <vfprintf+0x278>
    1d14:	28 e0       	ldi	r18, 0x08	; 8
    1d16:	30 e0       	ldi	r19, 0x00	; 0
    1d18:	05 c0       	rjmp	.+10     	; 0x1d24 <vfprintf+0x27c>
    1d1a:	20 e1       	ldi	r18, 0x10	; 16
    1d1c:	30 e0       	ldi	r19, 0x00	; 0
    1d1e:	02 c0       	rjmp	.+4      	; 0x1d24 <vfprintf+0x27c>
    1d20:	20 e1       	ldi	r18, 0x10	; 16
    1d22:	32 e0       	ldi	r19, 0x02	; 2
    1d24:	f5 01       	movw	r30, r10
    1d26:	17 ff       	sbrs	r17, 7
    1d28:	07 c0       	rjmp	.+14     	; 0x1d38 <vfprintf+0x290>
    1d2a:	60 81       	ld	r22, Z
    1d2c:	71 81       	ldd	r23, Z+1	; 0x01
    1d2e:	82 81       	ldd	r24, Z+2	; 0x02
    1d30:	93 81       	ldd	r25, Z+3	; 0x03
    1d32:	44 e0       	ldi	r20, 0x04	; 4
    1d34:	50 e0       	ldi	r21, 0x00	; 0
    1d36:	06 c0       	rjmp	.+12     	; 0x1d44 <vfprintf+0x29c>
    1d38:	60 81       	ld	r22, Z
    1d3a:	71 81       	ldd	r23, Z+1	; 0x01
    1d3c:	80 e0       	ldi	r24, 0x00	; 0
    1d3e:	90 e0       	ldi	r25, 0x00	; 0
    1d40:	42 e0       	ldi	r20, 0x02	; 2
    1d42:	50 e0       	ldi	r21, 0x00	; 0
    1d44:	a4 0e       	add	r10, r20
    1d46:	b5 1e       	adc	r11, r21
    1d48:	a2 01       	movw	r20, r4
    1d4a:	0e 94 74 0f 	call	0x1ee8	; 0x1ee8 <__ultoa_invert>
    1d4e:	d8 2e       	mov	r13, r24
    1d50:	d4 18       	sub	r13, r4
    1d52:	01 2f       	mov	r16, r17
    1d54:	0f 77       	andi	r16, 0x7F	; 127
    1d56:	06 ff       	sbrs	r16, 6
    1d58:	09 c0       	rjmp	.+18     	; 0x1d6c <vfprintf+0x2c4>
    1d5a:	0e 7f       	andi	r16, 0xFE	; 254
    1d5c:	df 14       	cp	r13, r15
    1d5e:	30 f4       	brcc	.+12     	; 0x1d6c <vfprintf+0x2c4>
    1d60:	04 ff       	sbrs	r16, 4
    1d62:	06 c0       	rjmp	.+12     	; 0x1d70 <vfprintf+0x2c8>
    1d64:	02 fd       	sbrc	r16, 2
    1d66:	04 c0       	rjmp	.+8      	; 0x1d70 <vfprintf+0x2c8>
    1d68:	0f 7e       	andi	r16, 0xEF	; 239
    1d6a:	02 c0       	rjmp	.+4      	; 0x1d70 <vfprintf+0x2c8>
    1d6c:	1d 2d       	mov	r17, r13
    1d6e:	01 c0       	rjmp	.+2      	; 0x1d72 <vfprintf+0x2ca>
    1d70:	1f 2d       	mov	r17, r15
    1d72:	80 2f       	mov	r24, r16
    1d74:	90 e0       	ldi	r25, 0x00	; 0
    1d76:	04 ff       	sbrs	r16, 4
    1d78:	0c c0       	rjmp	.+24     	; 0x1d92 <vfprintf+0x2ea>
    1d7a:	fe 01       	movw	r30, r28
    1d7c:	ed 0d       	add	r30, r13
    1d7e:	f1 1d       	adc	r31, r1
    1d80:	20 81       	ld	r18, Z
    1d82:	20 33       	cpi	r18, 0x30	; 48
    1d84:	11 f4       	brne	.+4      	; 0x1d8a <vfprintf+0x2e2>
    1d86:	09 7e       	andi	r16, 0xE9	; 233
    1d88:	09 c0       	rjmp	.+18     	; 0x1d9c <vfprintf+0x2f4>
    1d8a:	02 ff       	sbrs	r16, 2
    1d8c:	06 c0       	rjmp	.+12     	; 0x1d9a <vfprintf+0x2f2>
    1d8e:	1e 5f       	subi	r17, 0xFE	; 254
    1d90:	05 c0       	rjmp	.+10     	; 0x1d9c <vfprintf+0x2f4>
    1d92:	86 78       	andi	r24, 0x86	; 134
    1d94:	90 70       	andi	r25, 0x00	; 0
    1d96:	00 97       	sbiw	r24, 0x00	; 0
    1d98:	09 f0       	breq	.+2      	; 0x1d9c <vfprintf+0x2f4>
    1d9a:	1f 5f       	subi	r17, 0xFF	; 255
    1d9c:	80 2e       	mov	r8, r16
    1d9e:	99 24       	eor	r9, r9
    1da0:	03 fd       	sbrc	r16, 3
    1da2:	12 c0       	rjmp	.+36     	; 0x1dc8 <vfprintf+0x320>
    1da4:	00 ff       	sbrs	r16, 0
    1da6:	0d c0       	rjmp	.+26     	; 0x1dc2 <vfprintf+0x31a>
    1da8:	fd 2c       	mov	r15, r13
    1daa:	1e 15       	cp	r17, r14
    1dac:	50 f4       	brcc	.+20     	; 0x1dc2 <vfprintf+0x31a>
    1dae:	fe 0c       	add	r15, r14
    1db0:	f1 1a       	sub	r15, r17
    1db2:	1e 2d       	mov	r17, r14
    1db4:	06 c0       	rjmp	.+12     	; 0x1dc2 <vfprintf+0x31a>
    1db6:	80 e2       	ldi	r24, 0x20	; 32
    1db8:	90 e0       	ldi	r25, 0x00	; 0
    1dba:	b3 01       	movw	r22, r6
    1dbc:	0e 94 48 0f 	call	0x1e90	; 0x1e90 <fputc>
    1dc0:	1f 5f       	subi	r17, 0xFF	; 255
    1dc2:	1e 15       	cp	r17, r14
    1dc4:	c0 f3       	brcs	.-16     	; 0x1db6 <vfprintf+0x30e>
    1dc6:	04 c0       	rjmp	.+8      	; 0x1dd0 <vfprintf+0x328>
    1dc8:	1e 15       	cp	r17, r14
    1dca:	10 f4       	brcc	.+4      	; 0x1dd0 <vfprintf+0x328>
    1dcc:	e1 1a       	sub	r14, r17
    1dce:	01 c0       	rjmp	.+2      	; 0x1dd2 <vfprintf+0x32a>
    1dd0:	ee 24       	eor	r14, r14
    1dd2:	84 fe       	sbrs	r8, 4
    1dd4:	0f c0       	rjmp	.+30     	; 0x1df4 <vfprintf+0x34c>
    1dd6:	80 e3       	ldi	r24, 0x30	; 48
    1dd8:	90 e0       	ldi	r25, 0x00	; 0
    1dda:	b3 01       	movw	r22, r6
    1ddc:	0e 94 48 0f 	call	0x1e90	; 0x1e90 <fputc>
    1de0:	82 fe       	sbrs	r8, 2
    1de2:	1f c0       	rjmp	.+62     	; 0x1e22 <vfprintf+0x37a>
    1de4:	81 fe       	sbrs	r8, 1
    1de6:	03 c0       	rjmp	.+6      	; 0x1dee <vfprintf+0x346>
    1de8:	88 e5       	ldi	r24, 0x58	; 88
    1dea:	90 e0       	ldi	r25, 0x00	; 0
    1dec:	10 c0       	rjmp	.+32     	; 0x1e0e <vfprintf+0x366>
    1dee:	88 e7       	ldi	r24, 0x78	; 120
    1df0:	90 e0       	ldi	r25, 0x00	; 0
    1df2:	0d c0       	rjmp	.+26     	; 0x1e0e <vfprintf+0x366>
    1df4:	c4 01       	movw	r24, r8
    1df6:	86 78       	andi	r24, 0x86	; 134
    1df8:	90 70       	andi	r25, 0x00	; 0
    1dfa:	00 97       	sbiw	r24, 0x00	; 0
    1dfc:	91 f0       	breq	.+36     	; 0x1e22 <vfprintf+0x37a>
    1dfe:	81 fc       	sbrc	r8, 1
    1e00:	02 c0       	rjmp	.+4      	; 0x1e06 <vfprintf+0x35e>
    1e02:	80 e2       	ldi	r24, 0x20	; 32
    1e04:	01 c0       	rjmp	.+2      	; 0x1e08 <vfprintf+0x360>
    1e06:	8b e2       	ldi	r24, 0x2B	; 43
    1e08:	07 fd       	sbrc	r16, 7
    1e0a:	8d e2       	ldi	r24, 0x2D	; 45
    1e0c:	90 e0       	ldi	r25, 0x00	; 0
    1e0e:	b3 01       	movw	r22, r6
    1e10:	0e 94 48 0f 	call	0x1e90	; 0x1e90 <fputc>
    1e14:	06 c0       	rjmp	.+12     	; 0x1e22 <vfprintf+0x37a>
    1e16:	80 e3       	ldi	r24, 0x30	; 48
    1e18:	90 e0       	ldi	r25, 0x00	; 0
    1e1a:	b3 01       	movw	r22, r6
    1e1c:	0e 94 48 0f 	call	0x1e90	; 0x1e90 <fputc>
    1e20:	fa 94       	dec	r15
    1e22:	df 14       	cp	r13, r15
    1e24:	c0 f3       	brcs	.-16     	; 0x1e16 <vfprintf+0x36e>
    1e26:	da 94       	dec	r13
    1e28:	f2 01       	movw	r30, r4
    1e2a:	ed 0d       	add	r30, r13
    1e2c:	f1 1d       	adc	r31, r1
    1e2e:	80 81       	ld	r24, Z
    1e30:	90 e0       	ldi	r25, 0x00	; 0
    1e32:	b3 01       	movw	r22, r6
    1e34:	0e 94 48 0f 	call	0x1e90	; 0x1e90 <fputc>
    1e38:	dd 20       	and	r13, r13
    1e3a:	a9 f7       	brne	.-22     	; 0x1e26 <vfprintf+0x37e>
    1e3c:	06 c0       	rjmp	.+12     	; 0x1e4a <vfprintf+0x3a2>
    1e3e:	80 e2       	ldi	r24, 0x20	; 32
    1e40:	90 e0       	ldi	r25, 0x00	; 0
    1e42:	b3 01       	movw	r22, r6
    1e44:	0e 94 48 0f 	call	0x1e90	; 0x1e90 <fputc>
    1e48:	ea 94       	dec	r14
    1e4a:	ee 20       	and	r14, r14
    1e4c:	c1 f7       	brne	.-16     	; 0x1e3e <vfprintf+0x396>
    1e4e:	40 ce       	rjmp	.-896    	; 0x1ad0 <vfprintf+0x28>
    1e50:	f3 01       	movw	r30, r6
    1e52:	86 81       	ldd	r24, Z+6	; 0x06
    1e54:	97 81       	ldd	r25, Z+7	; 0x07
    1e56:	02 c0       	rjmp	.+4      	; 0x1e5c <vfprintf+0x3b4>
    1e58:	8f ef       	ldi	r24, 0xFF	; 255
    1e5a:	9f ef       	ldi	r25, 0xFF	; 255
    1e5c:	2d 96       	adiw	r28, 0x0d	; 13
    1e5e:	e2 e1       	ldi	r30, 0x12	; 18
    1e60:	0c 94 ee 0f 	jmp	0x1fdc	; 0x1fdc <__epilogue_restores__>

00001e64 <strnlen_P>:
    1e64:	fc 01       	movw	r30, r24
    1e66:	05 90       	lpm	r0, Z+
    1e68:	61 50       	subi	r22, 0x01	; 1
    1e6a:	70 40       	sbci	r23, 0x00	; 0
    1e6c:	01 10       	cpse	r0, r1
    1e6e:	d8 f7       	brcc	.-10     	; 0x1e66 <strnlen_P+0x2>
    1e70:	80 95       	com	r24
    1e72:	90 95       	com	r25
    1e74:	8e 0f       	add	r24, r30
    1e76:	9f 1f       	adc	r25, r31
    1e78:	08 95       	ret

00001e7a <strnlen>:
    1e7a:	fc 01       	movw	r30, r24
    1e7c:	61 50       	subi	r22, 0x01	; 1
    1e7e:	70 40       	sbci	r23, 0x00	; 0
    1e80:	01 90       	ld	r0, Z+
    1e82:	01 10       	cpse	r0, r1
    1e84:	d8 f7       	brcc	.-10     	; 0x1e7c <strnlen+0x2>
    1e86:	80 95       	com	r24
    1e88:	90 95       	com	r25
    1e8a:	8e 0f       	add	r24, r30
    1e8c:	9f 1f       	adc	r25, r31
    1e8e:	08 95       	ret

00001e90 <fputc>:
    1e90:	0f 93       	push	r16
    1e92:	1f 93       	push	r17
    1e94:	cf 93       	push	r28
    1e96:	df 93       	push	r29
    1e98:	8c 01       	movw	r16, r24
    1e9a:	eb 01       	movw	r28, r22
    1e9c:	8b 81       	ldd	r24, Y+3	; 0x03
    1e9e:	81 ff       	sbrs	r24, 1
    1ea0:	1b c0       	rjmp	.+54     	; 0x1ed8 <fputc+0x48>
    1ea2:	82 ff       	sbrs	r24, 2
    1ea4:	0d c0       	rjmp	.+26     	; 0x1ec0 <fputc+0x30>
    1ea6:	2e 81       	ldd	r18, Y+6	; 0x06
    1ea8:	3f 81       	ldd	r19, Y+7	; 0x07
    1eaa:	8c 81       	ldd	r24, Y+4	; 0x04
    1eac:	9d 81       	ldd	r25, Y+5	; 0x05
    1eae:	28 17       	cp	r18, r24
    1eb0:	39 07       	cpc	r19, r25
    1eb2:	64 f4       	brge	.+24     	; 0x1ecc <fputc+0x3c>
    1eb4:	e8 81       	ld	r30, Y
    1eb6:	f9 81       	ldd	r31, Y+1	; 0x01
    1eb8:	01 93       	st	Z+, r16
    1eba:	f9 83       	std	Y+1, r31	; 0x01
    1ebc:	e8 83       	st	Y, r30
    1ebe:	06 c0       	rjmp	.+12     	; 0x1ecc <fputc+0x3c>
    1ec0:	e8 85       	ldd	r30, Y+8	; 0x08
    1ec2:	f9 85       	ldd	r31, Y+9	; 0x09
    1ec4:	80 2f       	mov	r24, r16
    1ec6:	09 95       	icall
    1ec8:	00 97       	sbiw	r24, 0x00	; 0
    1eca:	31 f4       	brne	.+12     	; 0x1ed8 <fputc+0x48>
    1ecc:	8e 81       	ldd	r24, Y+6	; 0x06
    1ece:	9f 81       	ldd	r25, Y+7	; 0x07
    1ed0:	01 96       	adiw	r24, 0x01	; 1
    1ed2:	9f 83       	std	Y+7, r25	; 0x07
    1ed4:	8e 83       	std	Y+6, r24	; 0x06
    1ed6:	02 c0       	rjmp	.+4      	; 0x1edc <fputc+0x4c>
    1ed8:	0f ef       	ldi	r16, 0xFF	; 255
    1eda:	1f ef       	ldi	r17, 0xFF	; 255
    1edc:	c8 01       	movw	r24, r16
    1ede:	df 91       	pop	r29
    1ee0:	cf 91       	pop	r28
    1ee2:	1f 91       	pop	r17
    1ee4:	0f 91       	pop	r16
    1ee6:	08 95       	ret

00001ee8 <__ultoa_invert>:
    1ee8:	fa 01       	movw	r30, r20
    1eea:	aa 27       	eor	r26, r26
    1eec:	28 30       	cpi	r18, 0x08	; 8
    1eee:	51 f1       	breq	.+84     	; 0x1f44 <__ultoa_invert+0x5c>
    1ef0:	20 31       	cpi	r18, 0x10	; 16
    1ef2:	81 f1       	breq	.+96     	; 0x1f54 <__ultoa_invert+0x6c>
    1ef4:	e8 94       	clt
    1ef6:	6f 93       	push	r22
    1ef8:	6e 7f       	andi	r22, 0xFE	; 254
    1efa:	6e 5f       	subi	r22, 0xFE	; 254
    1efc:	7f 4f       	sbci	r23, 0xFF	; 255
    1efe:	8f 4f       	sbci	r24, 0xFF	; 255
    1f00:	9f 4f       	sbci	r25, 0xFF	; 255
    1f02:	af 4f       	sbci	r26, 0xFF	; 255
    1f04:	b1 e0       	ldi	r27, 0x01	; 1
    1f06:	3e d0       	rcall	.+124    	; 0x1f84 <__ultoa_invert+0x9c>
    1f08:	b4 e0       	ldi	r27, 0x04	; 4
    1f0a:	3c d0       	rcall	.+120    	; 0x1f84 <__ultoa_invert+0x9c>
    1f0c:	67 0f       	add	r22, r23
    1f0e:	78 1f       	adc	r23, r24
    1f10:	89 1f       	adc	r24, r25
    1f12:	9a 1f       	adc	r25, r26
    1f14:	a1 1d       	adc	r26, r1
    1f16:	68 0f       	add	r22, r24
    1f18:	79 1f       	adc	r23, r25
    1f1a:	8a 1f       	adc	r24, r26
    1f1c:	91 1d       	adc	r25, r1
    1f1e:	a1 1d       	adc	r26, r1
    1f20:	6a 0f       	add	r22, r26
    1f22:	71 1d       	adc	r23, r1
    1f24:	81 1d       	adc	r24, r1
    1f26:	91 1d       	adc	r25, r1
    1f28:	a1 1d       	adc	r26, r1
    1f2a:	20 d0       	rcall	.+64     	; 0x1f6c <__ultoa_invert+0x84>
    1f2c:	09 f4       	brne	.+2      	; 0x1f30 <__ultoa_invert+0x48>
    1f2e:	68 94       	set
    1f30:	3f 91       	pop	r19
    1f32:	2a e0       	ldi	r18, 0x0A	; 10
    1f34:	26 9f       	mul	r18, r22
    1f36:	11 24       	eor	r1, r1
    1f38:	30 19       	sub	r19, r0
    1f3a:	30 5d       	subi	r19, 0xD0	; 208
    1f3c:	31 93       	st	Z+, r19
    1f3e:	de f6       	brtc	.-74     	; 0x1ef6 <__ultoa_invert+0xe>
    1f40:	cf 01       	movw	r24, r30
    1f42:	08 95       	ret
    1f44:	46 2f       	mov	r20, r22
    1f46:	47 70       	andi	r20, 0x07	; 7
    1f48:	40 5d       	subi	r20, 0xD0	; 208
    1f4a:	41 93       	st	Z+, r20
    1f4c:	b3 e0       	ldi	r27, 0x03	; 3
    1f4e:	0f d0       	rcall	.+30     	; 0x1f6e <__ultoa_invert+0x86>
    1f50:	c9 f7       	brne	.-14     	; 0x1f44 <__ultoa_invert+0x5c>
    1f52:	f6 cf       	rjmp	.-20     	; 0x1f40 <__ultoa_invert+0x58>
    1f54:	46 2f       	mov	r20, r22
    1f56:	4f 70       	andi	r20, 0x0F	; 15
    1f58:	40 5d       	subi	r20, 0xD0	; 208
    1f5a:	4a 33       	cpi	r20, 0x3A	; 58
    1f5c:	18 f0       	brcs	.+6      	; 0x1f64 <__ultoa_invert+0x7c>
    1f5e:	49 5d       	subi	r20, 0xD9	; 217
    1f60:	31 fd       	sbrc	r19, 1
    1f62:	40 52       	subi	r20, 0x20	; 32
    1f64:	41 93       	st	Z+, r20
    1f66:	02 d0       	rcall	.+4      	; 0x1f6c <__ultoa_invert+0x84>
    1f68:	a9 f7       	brne	.-22     	; 0x1f54 <__ultoa_invert+0x6c>
    1f6a:	ea cf       	rjmp	.-44     	; 0x1f40 <__ultoa_invert+0x58>
    1f6c:	b4 e0       	ldi	r27, 0x04	; 4
    1f6e:	a6 95       	lsr	r26
    1f70:	97 95       	ror	r25
    1f72:	87 95       	ror	r24
    1f74:	77 95       	ror	r23
    1f76:	67 95       	ror	r22
    1f78:	ba 95       	dec	r27
    1f7a:	c9 f7       	brne	.-14     	; 0x1f6e <__ultoa_invert+0x86>
    1f7c:	00 97       	sbiw	r24, 0x00	; 0
    1f7e:	61 05       	cpc	r22, r1
    1f80:	71 05       	cpc	r23, r1
    1f82:	08 95       	ret
    1f84:	9b 01       	movw	r18, r22
    1f86:	ac 01       	movw	r20, r24
    1f88:	0a 2e       	mov	r0, r26
    1f8a:	06 94       	lsr	r0
    1f8c:	57 95       	ror	r21
    1f8e:	47 95       	ror	r20
    1f90:	37 95       	ror	r19
    1f92:	27 95       	ror	r18
    1f94:	ba 95       	dec	r27
    1f96:	c9 f7       	brne	.-14     	; 0x1f8a <__ultoa_invert+0xa2>
    1f98:	62 0f       	add	r22, r18
    1f9a:	73 1f       	adc	r23, r19
    1f9c:	84 1f       	adc	r24, r20
    1f9e:	95 1f       	adc	r25, r21
    1fa0:	a0 1d       	adc	r26, r0
    1fa2:	08 95       	ret

00001fa4 <__prologue_saves__>:
    1fa4:	2f 92       	push	r2
    1fa6:	3f 92       	push	r3
    1fa8:	4f 92       	push	r4
    1faa:	5f 92       	push	r5
    1fac:	6f 92       	push	r6
    1fae:	7f 92       	push	r7
    1fb0:	8f 92       	push	r8
    1fb2:	9f 92       	push	r9
    1fb4:	af 92       	push	r10
    1fb6:	bf 92       	push	r11
    1fb8:	cf 92       	push	r12
    1fba:	df 92       	push	r13
    1fbc:	ef 92       	push	r14
    1fbe:	ff 92       	push	r15
    1fc0:	0f 93       	push	r16
    1fc2:	1f 93       	push	r17
    1fc4:	cf 93       	push	r28
    1fc6:	df 93       	push	r29
    1fc8:	cd b7       	in	r28, 0x3d	; 61
    1fca:	de b7       	in	r29, 0x3e	; 62
    1fcc:	ca 1b       	sub	r28, r26
    1fce:	db 0b       	sbc	r29, r27
    1fd0:	0f b6       	in	r0, 0x3f	; 63
    1fd2:	f8 94       	cli
    1fd4:	de bf       	out	0x3e, r29	; 62
    1fd6:	0f be       	out	0x3f, r0	; 63
    1fd8:	cd bf       	out	0x3d, r28	; 61
    1fda:	09 94       	ijmp

00001fdc <__epilogue_restores__>:
    1fdc:	2a 88       	ldd	r2, Y+18	; 0x12
    1fde:	39 88       	ldd	r3, Y+17	; 0x11
    1fe0:	48 88       	ldd	r4, Y+16	; 0x10
    1fe2:	5f 84       	ldd	r5, Y+15	; 0x0f
    1fe4:	6e 84       	ldd	r6, Y+14	; 0x0e
    1fe6:	7d 84       	ldd	r7, Y+13	; 0x0d
    1fe8:	8c 84       	ldd	r8, Y+12	; 0x0c
    1fea:	9b 84       	ldd	r9, Y+11	; 0x0b
    1fec:	aa 84       	ldd	r10, Y+10	; 0x0a
    1fee:	b9 84       	ldd	r11, Y+9	; 0x09
    1ff0:	c8 84       	ldd	r12, Y+8	; 0x08
    1ff2:	df 80       	ldd	r13, Y+7	; 0x07
    1ff4:	ee 80       	ldd	r14, Y+6	; 0x06
    1ff6:	fd 80       	ldd	r15, Y+5	; 0x05
    1ff8:	0c 81       	ldd	r16, Y+4	; 0x04
    1ffa:	1b 81       	ldd	r17, Y+3	; 0x03
    1ffc:	aa 81       	ldd	r26, Y+2	; 0x02
    1ffe:	b9 81       	ldd	r27, Y+1	; 0x01
    2000:	ce 0f       	add	r28, r30
    2002:	d1 1d       	adc	r29, r1
    2004:	0f b6       	in	r0, 0x3f	; 63
    2006:	f8 94       	cli
    2008:	de bf       	out	0x3e, r29	; 62
    200a:	0f be       	out	0x3f, r0	; 63
    200c:	cd bf       	out	0x3d, r28	; 61
    200e:	ed 01       	movw	r28, r26
    2010:	08 95       	ret

00002012 <_exit>:
    2012:	f8 94       	cli

00002014 <__stop_program>:
    2014:	ff cf       	rjmp	.-2      	; 0x2014 <__stop_program>
